

Microchip MPLAB XC8 Assembler V2.40 build 20220703182018 
                                                                                               Sun Aug 07 16:02:24 2022

Microchip MPLAB XC8 C Compiler v2.40 (Free license) build 20220703182018 Og1 
     1                           	processor	16F887
     2                           	pagewidth 120
     3                           	opt	flic
     4                           	psect	strings,global,class=STRING,delta=2,noexec
     5                           	psect	cinit,global,class=CODE,merge=1,delta=2
     6                           	psect	bssCOMMON,global,class=COMMON,space=1,delta=1,noexec
     7                           	psect	bssBANK1,global,class=BANK1,space=1,delta=1,noexec
     8                           	psect	cstackBANK1,global,class=BANK1,space=1,delta=1,noexec
     9                           	psect	cstackCOMMON,global,class=COMMON,space=1,delta=1,noexec
    10                           	psect	cstackBANK0,global,class=BANK0,space=1,delta=1,noexec
    11                           	psect	maintext,global,class=CODE,split=1,delta=2
    12                           	psect	text1,local,class=CODE,merge=1,delta=2,group=1
    13                           	psect	text2,local,class=CODE,merge=1,delta=2,group=2
    14                           	psect	text3,local,class=CODE,merge=1,delta=2,group=2
    15                           	psect	text4,local,class=CODE,merge=1,delta=2
    16                           	psect	text5,local,class=CODE,merge=1,delta=2
    17                           	psect	text6,local,class=CODE,merge=1,delta=2
    18                           	psect	text7,local,class=CODE,merge=1,delta=2
    19                           	psect	text8,local,class=CODE,merge=1,delta=2
    20                           	psect	text9,local,class=CODE,merge=1,delta=2
    21                           	psect	text10,local,class=CODE,merge=1,delta=2
    22                           	psect	text11,local,class=CODE,merge=1,delta=2
    23                           	psect	text12,local,class=CODE,merge=1,delta=2
    24                           	psect	text13,local,class=CODE,merge=1,delta=2
    25                           	psect	text14,local,class=CODE,merge=1,delta=2
    26                           	psect	text15,local,class=CODE,merge=1,delta=2,group=2
    27                           	psect	text16,local,class=CODE,merge=1,delta=2,group=2
    28                           	psect	text17,local,class=CODE,merge=1,delta=2,group=2
    29                           	psect	text18,local,class=CODE,merge=1,delta=2,group=2
    30                           	psect	text19,local,class=CODE,merge=1,delta=2,group=2
    31                           	psect	text20,local,class=CODE,merge=1,delta=2,group=2
    32                           	psect	text21,local,class=CODE,merge=1,delta=2
    33                           	psect	text22,local,class=CODE,merge=1,delta=2,group=2
    34                           	psect	text23,local,class=CODE,merge=1,delta=2
    35                           	psect	text24,local,class=CODE,merge=1,delta=2
    36                           	psect	text25,local,class=CODE,merge=1,delta=2
    37                           	psect	text26,local,class=CODE,merge=1,delta=2
    38                           	psect	text27,local,class=CODE,merge=1,delta=2
    39                           	psect	text28,local,class=CODE,merge=1,delta=2
    40                           	psect	intentry,global,class=CODE,delta=2
    41                           	psect	text29,local,class=CODE,merge=1,delta=2
    42                           	psect	text30,local,class=CODE,merge=1,delta=2
    43                           	psect	idloc,global,abs,ovrld,class=IDLOC,space=5,delta=2,noexec
    44                           	psect	config,global,abs,ovrld,class=CONFIG,space=4,delta=2,noexec
    45                           	dabs	1,0x7E,2
    46     0000                     
    47                           ; Version 2.40
    48                           ; Generated 17/11/2021 GMT
    49                           ; 
    50                           ; Copyright © 2021, Microchip Technology Inc. and its subsidiaries ("Microchip")
    51                           ; All rights reserved.
    52                           ; 
    53                           ; This software is developed by Microchip Technology Inc. and its subsidiaries ("Microch
      +                          ip").
    54                           ; 
    55                           ; Redistribution and use in source and binary forms, with or without modification, are
    56                           ; permitted provided that the following conditions are met:
    57                           ; 
    58                           ;     1. Redistributions of source code must retain the above copyright notice, this lis
      +                          t of
    59                           ;        conditions and the following disclaimer.
    60                           ; 
    61                           ;     2. Redistributions in binary form must reproduce the above copyright notice, this 
      +                          list
    62                           ;        of conditions and the following disclaimer in the documentation and/or other
    63                           ;        materials provided with the distribution. Publication is not required when
    64                           ;        this file is used in an embedded application.
    65                           ; 
    66                           ;     3. Microchip's name may not be used to endorse or promote products derived from th
      +                          is
    67                           ;        software without specific prior written permission.
    68                           ; 
    69                           ; THIS SOFTWARE IS PROVIDED BY MICROCHIP "AS IS" AND ANY EXPRESS OR IMPLIED WARRANTIES,
    70                           ; INCLUDING, BUT NOT LIMITED TO, THE IMPLIED WARRANTIES OF MERCHANTABILITY AND FITNESS F
      +                          OR
    71                           ; PURPOSE ARE DISCLAIMED.  IN NO EVENT SHALL MICROCHIP BE LIABLE FOR ANY DIRECT, INDIREC
      +                          T,
    72                           ; INCIDENTAL, SPECIAL, EXEMPLARY, OR CONSEQUENTIAL DAMAGES (INCLUDING BUT NOT LIMITED TO
    73                           ; PROCUREMENT OF SUBSTITUTE GOODS OR SERVICES; LOSS OF USE, DATA OR PROFITS; OR BUSINESS
    74                           ; INTERRUPTION) HOWSOEVER CAUSED AND ON ANY THEORY OF LIABILITY, WHETHER IN CONTRACT, ST
      +                          RICT
    75                           ; LIABILITY, OR TORT (INCLUDING NEGLIGENCE OR OTHERWISE) ARISING IN ANY WAY OUT OF THE U
      +                          SE OF
    76                           ; THIS SOFTWARE, EVEN IF ADVISED OF THE POSSIBILITY OF SUCH DAMAGE.
    77                           ; 
    78                           ; 
    79                           ; Code-generator required, PIC16F887 Definitions
    80                           ; 
    81                           ; SFR Addresses
    82     0000                     	;# 
    83     0001                     	;# 
    84     0002                     	;# 
    85     0003                     	;# 
    86     0004                     	;# 
    87     0005                     	;# 
    88     0006                     	;# 
    89     0007                     	;# 
    90     0008                     	;# 
    91     0009                     	;# 
    92     000A                     	;# 
    93     000B                     	;# 
    94     000C                     	;# 
    95     000D                     	;# 
    96     000E                     	;# 
    97     000E                     	;# 
    98     000F                     	;# 
    99     0010                     	;# 
   100     0011                     	;# 
   101     0012                     	;# 
   102     0013                     	;# 
   103     0014                     	;# 
   104     0015                     	;# 
   105     0015                     	;# 
   106     0016                     	;# 
   107     0017                     	;# 
   108     0018                     	;# 
   109     0019                     	;# 
   110     001A                     	;# 
   111     001B                     	;# 
   112     001B                     	;# 
   113     001C                     	;# 
   114     001D                     	;# 
   115     001E                     	;# 
   116     001F                     	;# 
   117     0081                     	;# 
   118     0085                     	;# 
   119     0086                     	;# 
   120     0087                     	;# 
   121     0088                     	;# 
   122     0089                     	;# 
   123     008C                     	;# 
   124     008D                     	;# 
   125     008E                     	;# 
   126     008F                     	;# 
   127     0090                     	;# 
   128     0091                     	;# 
   129     0092                     	;# 
   130     0093                     	;# 
   131     0093                     	;# 
   132     0093                     	;# 
   133     0094                     	;# 
   134     0095                     	;# 
   135     0096                     	;# 
   136     0097                     	;# 
   137     0098                     	;# 
   138     0099                     	;# 
   139     009A                     	;# 
   140     009B                     	;# 
   141     009C                     	;# 
   142     009D                     	;# 
   143     009E                     	;# 
   144     009F                     	;# 
   145     0105                     	;# 
   146     0107                     	;# 
   147     0108                     	;# 
   148     0109                     	;# 
   149     010C                     	;# 
   150     010C                     	;# 
   151     010D                     	;# 
   152     010E                     	;# 
   153     010F                     	;# 
   154     0185                     	;# 
   155     0187                     	;# 
   156     0188                     	;# 
   157     0189                     	;# 
   158     018C                     	;# 
   159     018D                     	;# 
   160     0000                     	;# 
   161     0001                     	;# 
   162     0002                     	;# 
   163     0003                     	;# 
   164     0004                     	;# 
   165     0005                     	;# 
   166     0006                     	;# 
   167     0007                     	;# 
   168     0008                     	;# 
   169     0009                     	;# 
   170     000A                     	;# 
   171     000B                     	;# 
   172     000C                     	;# 
   173     000D                     	;# 
   174     000E                     	;# 
   175     000E                     	;# 
   176     000F                     	;# 
   177     0010                     	;# 
   178     0011                     	;# 
   179     0012                     	;# 
   180     0013                     	;# 
   181     0014                     	;# 
   182     0015                     	;# 
   183     0015                     	;# 
   184     0016                     	;# 
   185     0017                     	;# 
   186     0018                     	;# 
   187     0019                     	;# 
   188     001A                     	;# 
   189     001B                     	;# 
   190     001B                     	;# 
   191     001C                     	;# 
   192     001D                     	;# 
   193     001E                     	;# 
   194     001F                     	;# 
   195     0081                     	;# 
   196     0085                     	;# 
   197     0086                     	;# 
   198     0087                     	;# 
   199     0088                     	;# 
   200     0089                     	;# 
   201     008C                     	;# 
   202     008D                     	;# 
   203     008E                     	;# 
   204     008F                     	;# 
   205     0090                     	;# 
   206     0091                     	;# 
   207     0092                     	;# 
   208     0093                     	;# 
   209     0093                     	;# 
   210     0093                     	;# 
   211     0094                     	;# 
   212     0095                     	;# 
   213     0096                     	;# 
   214     0097                     	;# 
   215     0098                     	;# 
   216     0099                     	;# 
   217     009A                     	;# 
   218     009B                     	;# 
   219     009C                     	;# 
   220     009D                     	;# 
   221     009E                     	;# 
   222     009F                     	;# 
   223     0105                     	;# 
   224     0107                     	;# 
   225     0108                     	;# 
   226     0109                     	;# 
   227     010C                     	;# 
   228     010C                     	;# 
   229     010D                     	;# 
   230     010E                     	;# 
   231     010F                     	;# 
   232     0185                     	;# 
   233     0187                     	;# 
   234     0188                     	;# 
   235     0189                     	;# 
   236     018C                     	;# 
   237     018D                     	;# 
   238     0000                     	;# 
   239     0001                     	;# 
   240     0002                     	;# 
   241     0003                     	;# 
   242     0004                     	;# 
   243     0005                     	;# 
   244     0006                     	;# 
   245     0007                     	;# 
   246     0008                     	;# 
   247     0009                     	;# 
   248     000A                     	;# 
   249     000B                     	;# 
   250     000C                     	;# 
   251     000D                     	;# 
   252     000E                     	;# 
   253     000E                     	;# 
   254     000F                     	;# 
   255     0010                     	;# 
   256     0011                     	;# 
   257     0012                     	;# 
   258     0013                     	;# 
   259     0014                     	;# 
   260     0015                     	;# 
   261     0015                     	;# 
   262     0016                     	;# 
   263     0017                     	;# 
   264     0018                     	;# 
   265     0019                     	;# 
   266     001A                     	;# 
   267     001B                     	;# 
   268     001B                     	;# 
   269     001C                     	;# 
   270     001D                     	;# 
   271     001E                     	;# 
   272     001F                     	;# 
   273     0081                     	;# 
   274     0085                     	;# 
   275     0086                     	;# 
   276     0087                     	;# 
   277     0088                     	;# 
   278     0089                     	;# 
   279     008C                     	;# 
   280     008D                     	;# 
   281     008E                     	;# 
   282     008F                     	;# 
   283     0090                     	;# 
   284     0091                     	;# 
   285     0092                     	;# 
   286     0093                     	;# 
   287     0093                     	;# 
   288     0093                     	;# 
   289     0094                     	;# 
   290     0095                     	;# 
   291     0096                     	;# 
   292     0097                     	;# 
   293     0098                     	;# 
   294     0099                     	;# 
   295     009A                     	;# 
   296     009B                     	;# 
   297     009C                     	;# 
   298     009D                     	;# 
   299     009E                     	;# 
   300     009F                     	;# 
   301     0105                     	;# 
   302     0107                     	;# 
   303     0108                     	;# 
   304     0109                     	;# 
   305     010C                     	;# 
   306     010C                     	;# 
   307     010D                     	;# 
   308     010E                     	;# 
   309     010F                     	;# 
   310     0185                     	;# 
   311     0187                     	;# 
   312     0188                     	;# 
   313     0189                     	;# 
   314     018C                     	;# 
   315     018D                     	;# 
   316     0000                     	;# 
   317     0001                     	;# 
   318     0002                     	;# 
   319     0003                     	;# 
   320     0004                     	;# 
   321     0005                     	;# 
   322     0006                     	;# 
   323     0007                     	;# 
   324     0008                     	;# 
   325     0009                     	;# 
   326     000A                     	;# 
   327     000B                     	;# 
   328     000C                     	;# 
   329     000D                     	;# 
   330     000E                     	;# 
   331     000E                     	;# 
   332     000F                     	;# 
   333     0010                     	;# 
   334     0011                     	;# 
   335     0012                     	;# 
   336     0013                     	;# 
   337     0014                     	;# 
   338     0015                     	;# 
   339     0015                     	;# 
   340     0016                     	;# 
   341     0017                     	;# 
   342     0018                     	;# 
   343     0019                     	;# 
   344     001A                     	;# 
   345     001B                     	;# 
   346     001B                     	;# 
   347     001C                     	;# 
   348     001D                     	;# 
   349     001E                     	;# 
   350     001F                     	;# 
   351     0081                     	;# 
   352     0085                     	;# 
   353     0086                     	;# 
   354     0087                     	;# 
   355     0088                     	;# 
   356     0089                     	;# 
   357     008C                     	;# 
   358     008D                     	;# 
   359     008E                     	;# 
   360     008F                     	;# 
   361     0090                     	;# 
   362     0091                     	;# 
   363     0092                     	;# 
   364     0093                     	;# 
   365     0093                     	;# 
   366     0093                     	;# 
   367     0094                     	;# 
   368     0095                     	;# 
   369     0096                     	;# 
   370     0097                     	;# 
   371     0098                     	;# 
   372     0099                     	;# 
   373     009A                     	;# 
   374     009B                     	;# 
   375     009C                     	;# 
   376     009D                     	;# 
   377     009E                     	;# 
   378     009F                     	;# 
   379     0105                     	;# 
   380     0107                     	;# 
   381     0108                     	;# 
   382     0109                     	;# 
   383     010C                     	;# 
   384     010C                     	;# 
   385     010D                     	;# 
   386     010E                     	;# 
   387     010F                     	;# 
   388     0185                     	;# 
   389     0187                     	;# 
   390     0188                     	;# 
   391     0189                     	;# 
   392     018C                     	;# 
   393     018D                     	;# 
   394     0000                     	;# 
   395     0001                     	;# 
   396     0002                     	;# 
   397     0003                     	;# 
   398     0004                     	;# 
   399     0005                     	;# 
   400     0006                     	;# 
   401     0007                     	;# 
   402     0008                     	;# 
   403     0009                     	;# 
   404     000A                     	;# 
   405     000B                     	;# 
   406     000C                     	;# 
   407     000D                     	;# 
   408     000E                     	;# 
   409     000E                     	;# 
   410     000F                     	;# 
   411     0010                     	;# 
   412     0011                     	;# 
   413     0012                     	;# 
   414     0013                     	;# 
   415     0014                     	;# 
   416     0015                     	;# 
   417     0015                     	;# 
   418     0016                     	;# 
   419     0017                     	;# 
   420     0018                     	;# 
   421     0019                     	;# 
   422     001A                     	;# 
   423     001B                     	;# 
   424     001B                     	;# 
   425     001C                     	;# 
   426     001D                     	;# 
   427     001E                     	;# 
   428     001F                     	;# 
   429     0081                     	;# 
   430     0085                     	;# 
   431     0086                     	;# 
   432     0087                     	;# 
   433     0088                     	;# 
   434     0089                     	;# 
   435     008C                     	;# 
   436     008D                     	;# 
   437     008E                     	;# 
   438     008F                     	;# 
   439     0090                     	;# 
   440     0091                     	;# 
   441     0092                     	;# 
   442     0093                     	;# 
   443     0093                     	;# 
   444     0093                     	;# 
   445     0094                     	;# 
   446     0095                     	;# 
   447     0096                     	;# 
   448     0097                     	;# 
   449     0098                     	;# 
   450     0099                     	;# 
   451     009A                     	;# 
   452     009B                     	;# 
   453     009C                     	;# 
   454     009D                     	;# 
   455     009E                     	;# 
   456     009F                     	;# 
   457     0105                     	;# 
   458     0107                     	;# 
   459     0108                     	;# 
   460     0109                     	;# 
   461     010C                     	;# 
   462     010C                     	;# 
   463     010D                     	;# 
   464     010E                     	;# 
   465     010F                     	;# 
   466     0185                     	;# 
   467     0187                     	;# 
   468     0188                     	;# 
   469     0189                     	;# 
   470     018C                     	;# 
   471     018D                     	;# 
   472     0000                     	;# 
   473     0001                     	;# 
   474     0002                     	;# 
   475     0003                     	;# 
   476     0004                     	;# 
   477     0005                     	;# 
   478     0006                     	;# 
   479     0007                     	;# 
   480     0008                     	;# 
   481     0009                     	;# 
   482     000A                     	;# 
   483     000B                     	;# 
   484     000C                     	;# 
   485     000D                     	;# 
   486     000E                     	;# 
   487     000E                     	;# 
   488     000F                     	;# 
   489     0010                     	;# 
   490     0011                     	;# 
   491     0012                     	;# 
   492     0013                     	;# 
   493     0014                     	;# 
   494     0015                     	;# 
   495     0015                     	;# 
   496     0016                     	;# 
   497     0017                     	;# 
   498     0018                     	;# 
   499     0019                     	;# 
   500     001A                     	;# 
   501     001B                     	;# 
   502     001B                     	;# 
   503     001C                     	;# 
   504     001D                     	;# 
   505     001E                     	;# 
   506     001F                     	;# 
   507     0081                     	;# 
   508     0085                     	;# 
   509     0086                     	;# 
   510     0087                     	;# 
   511     0088                     	;# 
   512     0089                     	;# 
   513     008C                     	;# 
   514     008D                     	;# 
   515     008E                     	;# 
   516     008F                     	;# 
   517     0090                     	;# 
   518     0091                     	;# 
   519     0092                     	;# 
   520     0093                     	;# 
   521     0093                     	;# 
   522     0093                     	;# 
   523     0094                     	;# 
   524     0095                     	;# 
   525     0096                     	;# 
   526     0097                     	;# 
   527     0098                     	;# 
   528     0099                     	;# 
   529     009A                     	;# 
   530     009B                     	;# 
   531     009C                     	;# 
   532     009D                     	;# 
   533     009E                     	;# 
   534     009F                     	;# 
   535     0105                     	;# 
   536     0107                     	;# 
   537     0108                     	;# 
   538     0109                     	;# 
   539     010C                     	;# 
   540     010C                     	;# 
   541     010D                     	;# 
   542     010E                     	;# 
   543     010F                     	;# 
   544     0185                     	;# 
   545     0187                     	;# 
   546     0188                     	;# 
   547     0189                     	;# 
   548     018C                     	;# 
   549     018D                     	;# 
   550     0000                     	;# 
   551     0001                     	;# 
   552     0002                     	;# 
   553     0003                     	;# 
   554     0004                     	;# 
   555     0005                     	;# 
   556     0006                     	;# 
   557     0007                     	;# 
   558     0008                     	;# 
   559     0009                     	;# 
   560     000A                     	;# 
   561     000B                     	;# 
   562     000C                     	;# 
   563     000D                     	;# 
   564     000E                     	;# 
   565     000E                     	;# 
   566     000F                     	;# 
   567     0010                     	;# 
   568     0011                     	;# 
   569     0012                     	;# 
   570     0013                     	;# 
   571     0014                     	;# 
   572     0015                     	;# 
   573     0015                     	;# 
   574     0016                     	;# 
   575     0017                     	;# 
   576     0018                     	;# 
   577     0019                     	;# 
   578     001A                     	;# 
   579     001B                     	;# 
   580     001B                     	;# 
   581     001C                     	;# 
   582     001D                     	;# 
   583     001E                     	;# 
   584     001F                     	;# 
   585     0081                     	;# 
   586     0085                     	;# 
   587     0086                     	;# 
   588     0087                     	;# 
   589     0088                     	;# 
   590     0089                     	;# 
   591     008C                     	;# 
   592     008D                     	;# 
   593     008E                     	;# 
   594     008F                     	;# 
   595     0090                     	;# 
   596     0091                     	;# 
   597     0092                     	;# 
   598     0093                     	;# 
   599     0093                     	;# 
   600     0093                     	;# 
   601     0094                     	;# 
   602     0095                     	;# 
   603     0096                     	;# 
   604     0097                     	;# 
   605     0098                     	;# 
   606     0099                     	;# 
   607     009A                     	;# 
   608     009B                     	;# 
   609     009C                     	;# 
   610     009D                     	;# 
   611     009E                     	;# 
   612     009F                     	;# 
   613     0105                     	;# 
   614     0107                     	;# 
   615     0108                     	;# 
   616     0109                     	;# 
   617     010C                     	;# 
   618     010C                     	;# 
   619     010D                     	;# 
   620     010E                     	;# 
   621     010F                     	;# 
   622     0185                     	;# 
   623     0187                     	;# 
   624     0188                     	;# 
   625     0189                     	;# 
   626     018C                     	;# 
   627     018D                     	;# 
   628                           
   629                           	psect	strings
   630     0800                     __pstrings:
   631     0800                     stringtab:
   632     0800                     __stringtab:
   633                           
   634                           ;	String table - string pointers are 1 byte each
   635     0800  1BFF               	btfsc	btemp+1,7
   636     0801  280A               	ljmp	stringcode
   637     0802  1383               	bcf	3,7
   638     0803  187F               	btfsc	btemp+1,0
   639     0804  1783               	bsf	3,7
   640     0805  0800               	movf	0,w
   641     0806  0A84               	incf	4,f
   642     0807  1903               	skipnz
   643     0808  0AFF               	incf	btemp+1,f
   644     0809  0008               	return
   645     080A                     stringcode:
   646     080A                     stringdir:
   647     080A  3008               	movlw	high stringdir
   648     080B  008A               	movwf	10
   649     080C  0804               	movf	4,w
   650     080D  0A84               	incf	4,f
   651     080E  0782               	addwf	2,f
   652     080F                     __stringbase:
   653     080F  3400               	retlw	0
   654     0810                     __end_of__stringtab:
   655     0810                     _dpowers:
   656     0810  3401               	retlw	1
   657     0811  3400               	retlw	0
   658     0812  340A               	retlw	10
   659     0813  3400               	retlw	0
   660     0814  3464               	retlw	100
   661     0815  3400               	retlw	0
   662     0816  34E8               	retlw	232
   663     0817  3403               	retlw	3
   664     0818  3410               	retlw	16
   665     0819  3427               	retlw	39
   666     081A                     __end_of_dpowers:
   667     001E                     _ADRESH	set	30
   668     001F                     _ADCON0bits	set	31
   669     0001                     _TMR0	set	1
   670     0013                     _SSPBUF	set	19
   671     0014                     _SSPCON	set	20
   672     0008                     _PORTDbits	set	8
   673     000B                     _INTCONbits	set	11
   674     0008                     _PORTD	set	8
   675     0006                     _PORTB	set	6
   676     0005                     _PORTA	set	5
   677     000C                     _PIR1bits	set	12
   678     0007                     _PORTCbits	set	7
   679     0043                     _RD3	set	67
   680     0047                     _RD7	set	71
   681     0046                     _RD6	set	70
   682     0045                     _RD5	set	69
   683     0044                     _RD4	set	68
   684     009F                     _ADCON1bits	set	159
   685     008F                     _OSCCONbits	set	143
   686     0081                     _OPTION_REGbits	set	129
   687     0094                     _SSPSTATbits	set	148
   688     0094                     _SSPSTAT	set	148
   689     008C                     _PIE1bits	set	140
   690     0088                     _TRISD	set	136
   691     0086                     _TRISB	set	134
   692     0085                     _TRISA	set	133
   693     0087                     _TRISC	set	135
   694     043B                     _TRISC3	set	1083
   695     043D                     _TRISC5	set	1085
   696     0189                     _ANSELH	set	393
   697     0188                     _ANSEL	set	392
   698     081A                     STR_2:
   699     081A  3420               	retlw	32	;' '
   700     081B  3420               	retlw	32	;' '
   701     081C  3425               	retlw	37	;'%'
   702     081D  3464               	retlw	100	;'d'
   703     081E  342E               	retlw	46	;'.'
   704     081F  3425               	retlw	37	;'%'
   705     0820  3464               	retlw	100	;'d'
   706     0821  3420               	retlw	32	;' '
   707     0822  3420               	retlw	32	;' '
   708     0823  3420               	retlw	32	;' '
   709     0824  3420               	retlw	32	;' '
   710     0825  3425               	retlw	37	;'%'
   711     0826  3464               	retlw	100	;'d'
   712     0827  342E               	retlw	46	;'.'
   713     0828  3425               	retlw	37	;'%'
   714     0829  3464               	retlw	100	;'d'
   715     082A  3420               	retlw	32	;' '
   716     082B  3400               	retlw	0
   717     082C                     STR_1:
   718     082C  3420               	retlw	32	;' '
   719     082D  3420               	retlw	32	;' '
   720     082E  3450               	retlw	80	;'P'
   721     082F  344F               	retlw	79	;'O'
   722     0830  3454               	retlw	84	;'T'
   723     0831  3431               	retlw	49	;'1'
   724     0832  3420               	retlw	32	;' '
   725     0833  3420               	retlw	32	;' '
   726     0834  3420               	retlw	32	;' '
   727     0835  3420               	retlw	32	;' '
   728     0836  3450               	retlw	80	;'P'
   729     0837  344F               	retlw	79	;'O'
   730     0838  3454               	retlw	84	;'T'
   731     0839  3432               	retlw	50	;'2'
   732     083A  3400               	retlw	0
   733                           
   734                           	psect	cinit
   735     000F                     start_initialization:	
   736                           ; #config settings
   737                           
   738     000F                     __initialization:
   739                           
   740                           ; Clear objects allocated to COMMON
   741     000F  01F0               	clrf	__pbssCOMMON& (0+127)
   742     0010  01F1               	clrf	(__pbssCOMMON+1)& (0+127)
   743     0011  01F2               	clrf	(__pbssCOMMON+2)& (0+127)
   744     0012  01F3               	clrf	(__pbssCOMMON+3)& (0+127)
   745     0013  01F4               	clrf	(__pbssCOMMON+4)& (0+127)
   746     0014  01F5               	clrf	(__pbssCOMMON+5)& (0+127)
   747                           
   748                           ; Clear objects allocated to BANK1
   749     0015  1683               	bsf	3,5	;RP0=1, select bank1
   750     0016  1303               	bcf	3,6	;RP1=0, select bank1
   751     0017  01BF               	clrf	__pbssBANK1& (0+127)
   752     0018  01C0               	clrf	(__pbssBANK1+1)& (0+127)
   753     0019  01C1               	clrf	(__pbssBANK1+2)& (0+127)
   754     001A  01C2               	clrf	(__pbssBANK1+3)& (0+127)
   755     001B  01C3               	clrf	(__pbssBANK1+4)& (0+127)
   756     001C  01C4               	clrf	(__pbssBANK1+5)& (0+127)
   757     001D  01C5               	clrf	(__pbssBANK1+6)& (0+127)
   758     001E  01C6               	clrf	(__pbssBANK1+7)& (0+127)
   759     001F  01C7               	clrf	(__pbssBANK1+8)& (0+127)
   760     0020  01C8               	clrf	(__pbssBANK1+9)& (0+127)
   761     0021  01C9               	clrf	(__pbssBANK1+10)& (0+127)
   762     0022  01CA               	clrf	(__pbssBANK1+11)& (0+127)
   763     0023  01CB               	clrf	(__pbssBANK1+12)& (0+127)
   764     0024  01CC               	clrf	(__pbssBANK1+13)& (0+127)
   765     0025                     end_of_initialization:	
   766                           ;End of C runtime variable initialization code
   767                           
   768     0025                     __end_of__initialization:
   769     0025  0183               	clrf	3
   770     0026  120A  118A  2E58   	ljmp	_main	;jump to C main() function
   771                           
   772                           	psect	bssCOMMON
   773     0070                     __pbssCOMMON:
   774     0070                     _variable:
   775     0070                     	ds	1
   776     0071                     _POT2:
   777     0071                     	ds	1
   778     0072                     _POT1:
   779     0072                     	ds	1
   780     0073                     _canal_ADC:
   781     0073                     	ds	1
   782     0074                     _bandera:
   783     0074                     	ds	1
   784     0075                     _valor_recibido:
   785     0075                     	ds	1
   786                           
   787                           	psect	bssBANK1
   788     00BF                     __pbssBANK1:
   789     00BF                     _VOLTAJE_2:
   790     00BF                     	ds	2
   791     00C1                     _VOLTAJE_1:
   792     00C1                     	ds	2
   793     00C3                     _dec_POT_2:
   794     00C3                     	ds	1
   795     00C4                     _init_POT_2:
   796     00C4                     	ds	1
   797     00C5                     _dec_POT_1:
   798     00C5                     	ds	1
   799     00C6                     _init_POT_1:
   800     00C6                     	ds	1
   801     00C7                     _POT2_ENVIO:
   802     00C7                     	ds	1
   803     00C8                     _POT1_ENVIO:
   804     00C8                     	ds	1
   805     00C9                     _val_temporal:
   806     00C9                     	ds	1
   807     00CA                     _cont_master:
   808     00CA                     	ds	1
   809     00CB                     _contador:
   810     00CB                     	ds	1
   811     00CC                     _s:
   812     00CC                     	ds	1
   813                           
   814                           	psect	cstackBANK1
   815     00A0                     __pcstackBANK1:
   816     00A0                     ??___fladd:
   817                           
   818                           ; 1 bytes @ 0x0
   819     00A0                     	ds	8
   820     00A8                     ?___fltol:
   821     00A8                     ___fltol@f1:	
   822                           ; 4 bytes @ 0x8
   823                           
   824                           
   825                           ; 4 bytes @ 0x8
   826     00A8                     	ds	4
   827     00AC                     ??___fltol:
   828                           
   829                           ; 1 bytes @ 0xC
   830     00AC                     	ds	4
   831     00B0                     ?_map:
   832     00B0                     map@x0:	
   833                           ; 2 bytes @ 0x10
   834                           
   835                           
   836                           ; 1 bytes @ 0x10
   837     00B0                     	ds	1
   838     00B1                     map@x1:
   839                           
   840                           ; 1 bytes @ 0x11
   841     00B1                     	ds	1
   842     00B2                     map@y0:
   843                           
   844                           ; 2 bytes @ 0x12
   845     00B2                     	ds	2
   846     00B4                     map@y1:
   847                           
   848                           ; 2 bytes @ 0x14
   849     00B4                     	ds	2
   850     00B6                     map@x:
   851                           
   852                           ; 1 bytes @ 0x16
   853     00B6                     	ds	1
   854     00B7                     ??_main:
   855                           
   856                           ; 1 bytes @ 0x17
   857     00B7                     	ds	8
   858                           
   859                           	psect	cstackCOMMON
   860     0076                     __pcstackCOMMON:
   861     0076                     ?_spiWrite:
   862     0076                     ?_setup:	
   863                           ; 1 bytes @ 0x0
   864                           
   865     0076                     ?_spiReceiveWait:	
   866                           ; 1 bytes @ 0x0
   867                           
   868     0076                     ?_spiRead:	
   869                           ; 1 bytes @ 0x0
   870                           
   871     0076                     ?_setup2:	
   872                           ; 1 bytes @ 0x0
   873                           
   874     0076                     ?_adc_start:	
   875                           ; 1 bytes @ 0x0
   876                           
   877     0076                     ?_init_osc_MHz:	
   878                           ; 1 bytes @ 0x0
   879                           
   880     0076                     ?_Lcd_Init:	
   881                           ; 1 bytes @ 0x0
   882                           
   883     0076                     ?_isr:	
   884                           ; 1 bytes @ 0x0
   885                           
   886     0076                     ?_main:	
   887                           ; 1 bytes @ 0x0
   888                           
   889     0076                     ?_Lcd_Port:	
   890                           ; 1 bytes @ 0x0
   891                           
   892     0076                     ?_Lcd_Cmd:	
   893                           ; 1 bytes @ 0x0
   894                           
   895     0076                     ?_Lcd_Write_Char:	
   896                           ; 1 bytes @ 0x0
   897                           
   898     0076                     ?_spiReceiveWait@SPI$F467:	
   899                           ; 1 bytes @ 0x0
   900                           
   901     0076                     ?i1_spiWrite:	
   902                           ; 1 bytes @ 0x0
   903                           
   904     0076                     ??i1_spiWrite:	
   905                           ; 1 bytes @ 0x0
   906                           
   907     0076                     ?_adc_read:	
   908                           ; 1 bytes @ 0x0
   909                           
   910     0076                     i1spiWrite@dat:	
   911                           ; 2 bytes @ 0x0
   912                           
   913                           
   914                           ; 1 bytes @ 0x0
   915     0076                     	ds	2
   916     0078                     ??_adc_read:
   917                           
   918                           ; 1 bytes @ 0x2
   919     0078                     	ds	2
   920     007A                     ??_isr:
   921                           
   922                           ; 1 bytes @ 0x4
   923     007A                     	ds	2
   924                           
   925                           	psect	cstackBANK0
   926     0020                     __pcstackBANK0:
   927     0020                     ??_spiWrite:
   928     0020                     ??_spiReceiveWait:	
   929                           ; 1 bytes @ 0x0
   930                           
   931     0020                     ??_spiRead:	
   932                           ; 1 bytes @ 0x0
   933                           
   934     0020                     ??_adc_start:	
   935                           ; 1 bytes @ 0x0
   936                           
   937     0020                     ??_init_osc_MHz:	
   938                           ; 1 bytes @ 0x0
   939                           
   940     0020                     ?_spiInit:	
   941                           ; 1 bytes @ 0x0
   942                           
   943     0020                     ?_adc_init:	
   944                           ; 1 bytes @ 0x0
   945                           
   946     0020                     ??_Lcd_Port:	
   947                           ; 1 bytes @ 0x0
   948                           
   949     0020                     ??_spiReceiveWait@SPI$F467:	
   950                           ; 1 bytes @ 0x0
   951                           
   952     0020                     ?___bmul:	
   953                           ; 1 bytes @ 0x0
   954                           
   955     0020                     ?__Umul8_16:	
   956                           ; 1 bytes @ 0x0
   957                           
   958     0020                     ?___lwdiv:	
   959                           ; 2 bytes @ 0x0
   960                           
   961     0020                     ?___xxtofl:	
   962                           ; 2 bytes @ 0x0
   963                           
   964     0020                     Lcd_Port@a:	
   965                           ; 4 bytes @ 0x0
   966                           
   967     0020                     spiInit@sDataSample:	
   968                           ; 1 bytes @ 0x0
   969                           
   970     0020                     spiWrite@dat:	
   971                           ; 1 bytes @ 0x0
   972                           
   973     0020                     adc_init@vref_plus:	
   974                           ; 1 bytes @ 0x0
   975                           
   976     0020                     ___bmul@multiplicand:	
   977                           ; 1 bytes @ 0x0
   978                           
   979     0020                     __Umul8_16@multiplicand:	
   980                           ; 1 bytes @ 0x0
   981                           
   982     0020                     ___lwdiv@divisor:	
   983                           ; 1 bytes @ 0x0
   984                           
   985     0020                     ___xxtofl@val:	
   986                           ; 2 bytes @ 0x0
   987                           
   988                           
   989                           ; 4 bytes @ 0x0
   990     0020                     	ds	1
   991     0021                     ??_Lcd_Cmd:
   992     0021                     ??_Lcd_Write_Char:	
   993                           ; 1 bytes @ 0x1
   994                           
   995     0021                     ??___bmul:	
   996                           ; 1 bytes @ 0x1
   997                           
   998     0021                     spiInit@sClockIdle:	
   999                           ; 1 bytes @ 0x1
  1000                           
  1001     0021                     adc_init@vref_minus:	
  1002                           ; 1 bytes @ 0x1
  1003                           
  1004     0021                     adc_start@channel:	
  1005                           ; 1 bytes @ 0x1
  1006                           
  1007                           
  1008                           ; 1 bytes @ 0x1
  1009     0021                     	ds	1
  1010     0022                     ??_adc_init:
  1011     0022                     ??__Umul8_16:	
  1012                           ; 1 bytes @ 0x2
  1013                           
  1014     0022                     Lcd_Write_Char@temp:	
  1015                           ; 1 bytes @ 0x2
  1016                           
  1017     0022                     spiInit@sTransmitEdge:	
  1018                           ; 1 bytes @ 0x2
  1019                           
  1020     0022                     init_osc_MHz@freq:	
  1021                           ; 1 bytes @ 0x2
  1022                           
  1023     0022                     ___bmul@product:	
  1024                           ; 1 bytes @ 0x2
  1025                           
  1026     0022                     ___lwdiv@dividend:	
  1027                           ; 1 bytes @ 0x2
  1028                           
  1029                           
  1030                           ; 2 bytes @ 0x2
  1031     0022                     	ds	1
  1032     0023                     ??_spiInit:
  1033     0023                     Lcd_Cmd@a:	
  1034                           ; 1 bytes @ 0x3
  1035                           
  1036     0023                     Lcd_Write_Char@y:	
  1037                           ; 1 bytes @ 0x3
  1038                           
  1039     0023                     spiInit@sType:	
  1040                           ; 1 bytes @ 0x3
  1041                           
  1042     0023                     ___bmul@multiplier:	
  1043                           ; 1 bytes @ 0x3
  1044                           
  1045                           
  1046                           ; 1 bytes @ 0x3
  1047     0023                     	ds	1
  1048     0024                     ?_Lcd_Set_Cursor:
  1049     0024                     ??_Lcd_Init:	
  1050                           ; 1 bytes @ 0x4
  1051                           
  1052     0024                     ??___lwdiv:	
  1053                           ; 1 bytes @ 0x4
  1054                           
  1055     0024                     ??___xxtofl:	
  1056                           ; 1 bytes @ 0x4
  1057                           
  1058     0024                     Lcd_Set_Cursor@b:	
  1059                           ; 1 bytes @ 0x4
  1060                           
  1061     0024                     Lcd_Write_Char@a:	
  1062                           ; 1 bytes @ 0x4
  1063                           
  1064     0024                     adc_init@adc_cs:	
  1065                           ; 1 bytes @ 0x4
  1066                           
  1067     0024                     __Umul8_16@product:	
  1068                           ; 1 bytes @ 0x4
  1069                           
  1070                           
  1071                           ; 2 bytes @ 0x4
  1072     0024                     	ds	1
  1073     0025                     ??_Lcd_Set_Cursor:
  1074     0025                     ?_Lcd_Write_String:	
  1075                           ; 1 bytes @ 0x5
  1076                           
  1077     0025                     ??_setup2:	
  1078                           ; 1 bytes @ 0x5
  1079                           
  1080     0025                     ___lwdiv@counter:	
  1081                           ; 1 bytes @ 0x5
  1082                           
  1083     0025                     Lcd_Write_String@a:	
  1084                           ; 1 bytes @ 0x5
  1085                           
  1086                           
  1087                           ; 2 bytes @ 0x5
  1088     0025                     	ds	1
  1089     0026                     ??_setup:
  1090     0026                     Lcd_Set_Cursor@a:	
  1091                           ; 1 bytes @ 0x6
  1092                           
  1093     0026                     ___lwdiv@quotient:	
  1094                           ; 1 bytes @ 0x6
  1095                           
  1096     0026                     __Umul8_16@word_mpld:	
  1097                           ; 2 bytes @ 0x6
  1098                           
  1099                           
  1100                           ; 2 bytes @ 0x6
  1101     0026                     	ds	1
  1102     0027                     ??_Lcd_Write_String:
  1103     0027                     Lcd_Set_Cursor@z:	
  1104                           ; 1 bytes @ 0x7
  1105                           
  1106                           
  1107                           ; 1 bytes @ 0x7
  1108     0027                     	ds	1
  1109     0028                     ?___lwmod:
  1110     0028                     Lcd_Set_Cursor@y:	
  1111                           ; 2 bytes @ 0x8
  1112                           
  1113     0028                     __Umul8_16@multiplier:	
  1114                           ; 1 bytes @ 0x8
  1115                           
  1116     0028                     ___xxtofl@sign:	
  1117                           ; 1 bytes @ 0x8
  1118                           
  1119     0028                     ___lwmod@divisor:	
  1120                           ; 1 bytes @ 0x8
  1121                           
  1122                           
  1123                           ; 2 bytes @ 0x8
  1124     0028                     	ds	1
  1125     0029                     Lcd_Set_Cursor@temp:
  1126     0029                     ___xxtofl@exp:	
  1127                           ; 1 bytes @ 0x9
  1128                           
  1129                           
  1130                           ; 1 bytes @ 0x9
  1131     0029                     	ds	1
  1132     002A                     Lcd_Write_String@i:
  1133     002A                     ___lwmod@dividend:	
  1134                           ; 2 bytes @ 0xA
  1135                           
  1136     002A                     ___xxtofl@arg:	
  1137                           ; 2 bytes @ 0xA
  1138                           
  1139                           
  1140                           ; 4 bytes @ 0xA
  1141     002A                     	ds	2
  1142     002C                     ??___lwmod:
  1143                           
  1144                           ; 1 bytes @ 0xC
  1145     002C                     	ds	1
  1146     002D                     ___lwmod@counter:
  1147                           
  1148                           ; 1 bytes @ 0xD
  1149     002D                     	ds	1
  1150     002E                     ?_sprintf:
  1151     002E                     ?___fldiv:	
  1152                           ; 2 bytes @ 0xE
  1153                           
  1154     002E                     sprintf@f:	
  1155                           ; 4 bytes @ 0xE
  1156                           
  1157     002E                     ___fldiv@a:	
  1158                           ; 1 bytes @ 0xE
  1159                           
  1160                           
  1161                           ; 4 bytes @ 0xE
  1162     002E                     	ds	4
  1163     0032                     ___fldiv@b:
  1164                           
  1165                           ; 4 bytes @ 0x12
  1166     0032                     	ds	4
  1167     0036                     ??___fldiv:
  1168                           
  1169                           ; 1 bytes @ 0x16
  1170     0036                     	ds	1
  1171     0037                     ??_sprintf:
  1172                           
  1173                           ; 1 bytes @ 0x17
  1174     0037                     	ds	3
  1175     003A                     sprintf@ap:
  1176                           
  1177                           ; 1 bytes @ 0x1A
  1178     003A                     	ds	1
  1179     003B                     sprintf@flag:
  1180     003B                     ___fldiv@rem:	
  1181                           ; 1 bytes @ 0x1B
  1182                           
  1183                           
  1184                           ; 4 bytes @ 0x1B
  1185     003B                     	ds	1
  1186     003C                     sprintf@prec:
  1187                           
  1188                           ; 1 bytes @ 0x1C
  1189     003C                     	ds	1
  1190     003D                     sprintf@val:
  1191                           
  1192                           ; 2 bytes @ 0x1D
  1193     003D                     	ds	2
  1194     003F                     sprintf@sp:
  1195     003F                     ___fldiv@sign:	
  1196                           ; 1 bytes @ 0x1F
  1197                           
  1198                           
  1199                           ; 1 bytes @ 0x1F
  1200     003F                     	ds	1
  1201     0040                     sprintf@c:
  1202     0040                     ___fldiv@new_exp:	
  1203                           ; 1 bytes @ 0x20
  1204                           
  1205                           
  1206                           ; 2 bytes @ 0x20
  1207     0040                     	ds	2
  1208     0042                     ___fldiv@grs:
  1209                           
  1210                           ; 4 bytes @ 0x22
  1211     0042                     	ds	4
  1212     0046                     ___fldiv@bexp:
  1213                           
  1214                           ; 1 bytes @ 0x26
  1215     0046                     	ds	1
  1216     0047                     ___fldiv@aexp:
  1217                           
  1218                           ; 1 bytes @ 0x27
  1219     0047                     	ds	1
  1220     0048                     ?___flmul:
  1221     0048                     ___flmul@b:	
  1222                           ; 4 bytes @ 0x28
  1223                           
  1224                           
  1225                           ; 4 bytes @ 0x28
  1226     0048                     	ds	4
  1227     004C                     ___flmul@a:
  1228                           
  1229                           ; 4 bytes @ 0x2C
  1230     004C                     	ds	4
  1231     0050                     ??___flmul:
  1232                           
  1233                           ; 1 bytes @ 0x30
  1234     0050                     	ds	5
  1235     0055                     ___flmul@sign:
  1236                           
  1237                           ; 1 bytes @ 0x35
  1238     0055                     	ds	1
  1239     0056                     ___flmul@aexp:
  1240                           
  1241                           ; 1 bytes @ 0x36
  1242     0056                     	ds	1
  1243     0057                     ___flmul@grs:
  1244                           
  1245                           ; 4 bytes @ 0x37
  1246     0057                     	ds	4
  1247     005B                     ___flmul@bexp:
  1248                           
  1249                           ; 1 bytes @ 0x3B
  1250     005B                     	ds	1
  1251     005C                     ___flmul@prod:
  1252                           
  1253                           ; 4 bytes @ 0x3C
  1254     005C                     	ds	4
  1255     0060                     ___flmul@temp:
  1256                           
  1257                           ; 2 bytes @ 0x40
  1258     0060                     	ds	2
  1259     0062                     ?___fladd:
  1260     0062                     ___fladd@b:	
  1261                           ; 4 bytes @ 0x42
  1262                           
  1263                           
  1264                           ; 4 bytes @ 0x42
  1265     0062                     	ds	4
  1266     0066                     ___fladd@a:
  1267                           
  1268                           ; 4 bytes @ 0x46
  1269     0066                     	ds	4
  1270     006A                     ___fladd@signs:
  1271                           
  1272                           ; 1 bytes @ 0x4A
  1273     006A                     	ds	1
  1274     006B                     ___fladd@aexp:
  1275                           
  1276                           ; 1 bytes @ 0x4B
  1277     006B                     	ds	1
  1278     006C                     ___fladd@bexp:
  1279                           
  1280                           ; 1 bytes @ 0x4C
  1281     006C                     	ds	1
  1282     006D                     ___fladd@grs:
  1283                           
  1284                           ; 1 bytes @ 0x4D
  1285     006D                     	ds	1
  1286     006E                     ___fltol@sign1:
  1287                           
  1288                           ; 1 bytes @ 0x4E
  1289     006E                     	ds	1
  1290     006F                     ___fltol@exp1:
  1291                           
  1292                           ; 1 bytes @ 0x4F
  1293     006F                     	ds	1
  1294     0070                     ??_map:
  1295                           
  1296                           	psect	maintext
  1297     0658                     __pmaintext:	
  1298                           ; 1 bytes @ 0x50
  1299 ;;
  1300 ;;Main: autosize = 0, tempsize = 8, incstack = 0, save=0
  1301 ;;
  1302 ;; *************** function _main *****************
  1303 ;; Defined at:
  1304 ;;		line 98 in file "main.c"
  1305 ;; Parameters:    Size  Location     Type
  1306 ;;		None
  1307 ;; Auto vars:     Size  Location     Type
  1308 ;;		None
  1309 ;; Return value:  Size  Location     Type
  1310 ;;                  1    wreg      void 
  1311 ;; Registers used:
  1312 ;;		wreg, fsr0l, fsr0h, status,2, status,0, btemp+1, pclath, cstack
  1313 ;; Tracked objects:
  1314 ;;		On entry : B00/0
  1315 ;;		On exit  : 0/0
  1316 ;;		Unchanged: 0/0
  1317 ;; Data sizes:     COMMON   BANK0   BANK1   BANK3   BANK2
  1318 ;;      Params:         0       0       0       0       0
  1319 ;;      Locals:         0       0       0       0       0
  1320 ;;      Temps:          0       0       8       0       0
  1321 ;;      Totals:         0       0       8       0       0
  1322 ;;Total ram usage:        8 bytes
  1323 ;; Hardware stack levels required when called: 6
  1324 ;; This function calls:
  1325 ;;		_Lcd_Set_Cursor
  1326 ;;		_Lcd_Write_String
  1327 ;;		___bmul
  1328 ;;		___lwdiv
  1329 ;;		_adc_start
  1330 ;;		_map
  1331 ;;		_setup
  1332 ;;		_setup2
  1333 ;;		_spiRead
  1334 ;;		_spiReceiveWait
  1335 ;;		_spiWrite
  1336 ;;		_sprintf
  1337 ;; This function is called by:
  1338 ;;		Startup code after reset
  1339 ;; This function uses a non-reentrant model
  1340 ;;
  1341                           
  1342     0658                     _main:	
  1343                           ;psect for function _main
  1344                           
  1345     0658                     l3601:	
  1346                           ;incstack = 0
  1347                           ; Regs used in _main: [wreg-fsr0h+status,2+status,0+btemp+1+pclath+cstack]
  1348                           
  1349                           
  1350                           ;main.c: 99:     TRISC = 0xFF;
  1351     0658  30FF               	movlw	255
  1352     0659  1683               	bsf	3,5	;RP0=1, select bank1
  1353     065A  1303               	bcf	3,6	;RP1=0, select bank1
  1354     065B  0087               	movwf	7	;volatile
  1355     065C                     l3603:
  1356                           
  1357                           ;main.c: 102:     if(PORTCbits.RC0 == 1){
  1358     065C  1283               	bcf	3,5	;RP0=0, select bank0
  1359     065D  1303               	bcf	3,6	;RP1=0, select bank0
  1360     065E  1C07               	btfss	7,0	;volatile
  1361     065F  2E61               	goto	u4621
  1362     0660  2E62               	goto	u4620
  1363     0661                     u4621:
  1364     0661  2FAF               	goto	l113
  1365     0662                     u4620:
  1366     0662                     l3605:
  1367                           
  1368                           ;main.c: 103:         setup();
  1369     0662  120A  158A  203F  120A  118A  	fcall	_setup
  1370     0667                     l3607:
  1371                           
  1372                           ;main.c: 104:         Lcd_Set_Cursor(1,1);
  1373     0667  1283               	bcf	3,5	;RP0=0, select bank0
  1374     0668  1303               	bcf	3,6	;RP1=0, select bank0
  1375     0669  01A4               	clrf	Lcd_Set_Cursor@b
  1376     066A  0AA4               	incf	Lcd_Set_Cursor@b,f
  1377     066B  3001               	movlw	1
  1378     066C  120A  158A  21FD  120A  118A  	fcall	_Lcd_Set_Cursor
  1379     0671                     l3609:
  1380                           
  1381                           ;main.c: 105:         Lcd_Write_String("  POT1    POT2");
  1382     0671  301D               	movlw	(low ((STR_1-__stringbase)| (0+32768)))& (0+255)
  1383     0672  1283               	bcf	3,5	;RP0=0, select bank0
  1384     0673  1303               	bcf	3,6	;RP1=0, select bank0
  1385     0674  00A5               	movwf	Lcd_Write_String@a
  1386     0675  3080               	movlw	128
  1387     0676  00A6               	movwf	Lcd_Write_String@a+1
  1388     0677  120A  158A  2126  120A  118A  	fcall	_Lcd_Write_String
  1389     067C                     l3611:
  1390                           
  1391                           ;main.c: 107:             spiWrite(0x0F);
  1392     067C  300F               	movlw	15
  1393     067D  160A  118A  273A  120A  118A  	fcall	_spiWrite
  1394     0682                     l3613:
  1395                           
  1396                           ;main.c: 108:             spiReceiveWait();
  1397     0682  160A  118A  2747  120A  118A  	fcall	_spiReceiveWait
  1398     0687                     l3615:
  1399                           
  1400                           ;main.c: 110:             PORTCbits.RC2 = 1;
  1401     0687  1283               	bcf	3,5	;RP0=0, select bank0
  1402     0688  1303               	bcf	3,6	;RP1=0, select bank0
  1403     0689  1507               	bsf	7,2	;volatile
  1404     068A                     l3617:
  1405                           
  1406                           ;main.c: 111:             _delay((unsigned long)((10)*(4000000/4000.0)));
  1407     068A  300D               	movlw	13
  1408     068B  1683               	bsf	3,5	;RP0=1, select bank1
  1409     068C  1303               	bcf	3,6	;RP1=0, select bank1
  1410     068D  00B8               	movwf	(??_main^(0+128)+1)
  1411     068E  30FB               	movlw	251
  1412     068F  00B7               	movwf	??_main^(0+128)
  1413     0690                     u4687:
  1414     0690  0BB7               	decfsz	??_main^(0+128),f
  1415     0691  2E90               	goto	u4687
  1416     0692  0BB8               	decfsz	(??_main^(0+128)+1),f
  1417     0693  2E90               	goto	u4687
  1418     0694                     l3619:
  1419                           
  1420                           ;main.c: 112:             PORTCbits.RC2 = 0;
  1421     0694  1283               	bcf	3,5	;RP0=0, select bank0
  1422     0695  1303               	bcf	3,6	;RP1=0, select bank0
  1423     0696  1107               	bcf	7,2	;volatile
  1424     0697                     l3621:
  1425                           
  1426                           ;main.c: 113:             _delay((unsigned long)((10)*(4000000/4000.0)));
  1427     0697  300D               	movlw	13
  1428     0698  1683               	bsf	3,5	;RP0=1, select bank1
  1429     0699  1303               	bcf	3,6	;RP1=0, select bank1
  1430     069A  00B8               	movwf	(??_main^(0+128)+1)
  1431     069B  30FB               	movlw	251
  1432     069C  00B7               	movwf	??_main^(0+128)
  1433     069D                     u4697:
  1434     069D  0BB7               	decfsz	??_main^(0+128),f
  1435     069E  2E9D               	goto	u4697
  1436     069F  0BB8               	decfsz	(??_main^(0+128)+1),f
  1437     06A0  2E9D               	goto	u4697
  1438     06A1                     l3623:
  1439                           
  1440                           ;main.c: 115:             spiReceiveWait();
  1441     06A1  160A  118A  2747  120A  118A  	fcall	_spiReceiveWait
  1442     06A6                     l3625:
  1443                           
  1444                           ;main.c: 116:             valor_recibido = spiRead();
  1445     06A6  160A  118A  274E  120A  118A  	fcall	_spiRead
  1446     06AB  00F5               	movwf	_valor_recibido
  1447     06AC                     l3627:
  1448                           
  1449                           ;main.c: 117:             _delay((unsigned long)((10)*(4000000/4000.0)));
  1450     06AC  300D               	movlw	13
  1451     06AD  1683               	bsf	3,5	;RP0=1, select bank1
  1452     06AE  1303               	bcf	3,6	;RP1=0, select bank1
  1453     06AF  00B8               	movwf	(??_main^(0+128)+1)
  1454     06B0  30FB               	movlw	251
  1455     06B1  00B7               	movwf	??_main^(0+128)
  1456     06B2                     u4707:
  1457     06B2  0BB7               	decfsz	??_main^(0+128),f
  1458     06B3  2EB2               	goto	u4707
  1459     06B4  0BB8               	decfsz	(??_main^(0+128)+1),f
  1460     06B5  2EB2               	goto	u4707
  1461     06B6                     l3629:
  1462                           
  1463                           ;main.c: 119:             variable = 0b00000001 & valor_recibido;
  1464     06B6  0875               	movf	_valor_recibido,w
  1465     06B7  3901               	andlw	1
  1466     06B8  00F0               	movwf	_variable
  1467     06B9                     l3631:
  1468                           
  1469                           ;main.c: 120:             if (variable == 1){
  1470     06B9  0370               	decf	_variable,w
  1471     06BA  1D03               	btfss	3,2
  1472     06BB  2EBD               	goto	u4631
  1473     06BC  2EBE               	goto	u4630
  1474     06BD                     u4631:
  1475     06BD  2F07               	goto	l3641
  1476     06BE                     u4630:
  1477     06BE                     l3633:
  1478                           
  1479                           ;main.c: 121:                 POT1 = valor_recibido;
  1480     06BE  0875               	movf	_valor_recibido,w
  1481     06BF  00F2               	movwf	_POT1
  1482     06C0                     l3635:
  1483                           
  1484                           ;main.c: 122:                 VOLTAJE_1 = map(POT1, 1, 255, 0, 500);
  1485     06C0  1683               	bsf	3,5	;RP0=1, select bank1
  1486     06C1  1303               	bcf	3,6	;RP1=0, select bank1
  1487     06C2  01B0               	clrf	map@x0^(0+128)
  1488     06C3  0AB0               	incf	map@x0^(0+128),f
  1489     06C4  30FF               	movlw	255
  1490     06C5  00B1               	movwf	map@x1^(0+128)
  1491     06C6  3000               	movlw	0
  1492     06C7  00B2               	movwf	map@y0^(0+128)
  1493     06C8  00B3               	movwf	(map@y0+1)^(0+128)
  1494     06C9  30F4               	movlw	244
  1495     06CA  00B4               	movwf	map@y1^(0+128)
  1496     06CB  3001               	movlw	1
  1497     06CC  00B5               	movwf	(map@y1^(0+128)+1)
  1498     06CD  0872               	movf	_POT1,w
  1499     06CE  120A  158A  248B  120A  118A  	fcall	_map
  1500     06D3  1683               	bsf	3,5	;RP0=1, select bank1
  1501     06D4  1303               	bcf	3,6	;RP1=0, select bank1
  1502     06D5  0831               	movf	(?_map+1)^(0+128),w
  1503     06D6  00C2               	movwf	(_VOLTAJE_1+1)^(0+128)
  1504     06D7  0830               	movf	?_map^(0+128),w
  1505     06D8  00C1               	movwf	_VOLTAJE_1^(0+128)
  1506     06D9                     l3637:
  1507                           
  1508                           ;main.c: 123:                 init_POT_1 = VOLTAJE_1/100;
  1509     06D9  3064               	movlw	100
  1510     06DA  1283               	bcf	3,5	;RP0=0, select bank0
  1511     06DB  1303               	bcf	3,6	;RP1=0, select bank0
  1512     06DC  00A0               	movwf	___lwdiv@divisor
  1513     06DD  3000               	movlw	0
  1514     06DE  00A1               	movwf	___lwdiv@divisor+1
  1515     06DF  1683               	bsf	3,5	;RP0=1, select bank1
  1516     06E0  1303               	bcf	3,6	;RP1=0, select bank1
  1517     06E1  0842               	movf	(_VOLTAJE_1+1)^(0+128),w
  1518     06E2  1283               	bcf	3,5	;RP0=0, select bank0
  1519     06E3  1303               	bcf	3,6	;RP1=0, select bank0
  1520     06E4  00A3               	movwf	___lwdiv@dividend+1
  1521     06E5  1683               	bsf	3,5	;RP0=1, select bank1
  1522     06E6  1303               	bcf	3,6	;RP1=0, select bank1
  1523     06E7  0841               	movf	_VOLTAJE_1^(0+128),w
  1524     06E8  1283               	bcf	3,5	;RP0=0, select bank0
  1525     06E9  1303               	bcf	3,6	;RP1=0, select bank0
  1526     06EA  00A2               	movwf	___lwdiv@dividend
  1527     06EB  120A  158A  216C  120A  118A  	fcall	___lwdiv
  1528     06F0  1283               	bcf	3,5	;RP0=0, select bank0
  1529     06F1  1303               	bcf	3,6	;RP1=0, select bank0
  1530     06F2  0820               	movf	?___lwdiv,w
  1531     06F3  1683               	bsf	3,5	;RP0=1, select bank1
  1532     06F4  1303               	bcf	3,6	;RP1=0, select bank1
  1533     06F5  00C6               	movwf	_init_POT_1^(0+128)
  1534     06F6                     l3639:
  1535                           
  1536                           ;main.c: 124:                 dec_POT_1 = VOLTAJE_1-init_POT_1*100;
  1537     06F6  309C               	movlw	156
  1538     06F7  1283               	bcf	3,5	;RP0=0, select bank0
  1539     06F8  1303               	bcf	3,6	;RP1=0, select bank0
  1540     06F9  00A0               	movwf	___bmul@multiplicand
  1541     06FA  1683               	bsf	3,5	;RP0=1, select bank1
  1542     06FB  1303               	bcf	3,6	;RP1=0, select bank1
  1543     06FC  0846               	movf	_init_POT_1^(0+128),w
  1544     06FD  160A  118A  2762  120A  118A  	fcall	___bmul
  1545     0702  1683               	bsf	3,5	;RP0=1, select bank1
  1546     0703  1303               	bcf	3,6	;RP1=0, select bank1
  1547     0704  0741               	addwf	_VOLTAJE_1^(0+128),w
  1548     0705  00C5               	movwf	_dec_POT_1^(0+128)
  1549                           
  1550                           ;main.c: 125:             }
  1551     0706  2F53               	goto	l3651
  1552     0707                     l3641:
  1553     0707  0870               	movf	_variable,w
  1554     0708  1D03               	btfss	3,2
  1555     0709  2F0B               	goto	u4641
  1556     070A  2F0C               	goto	u4640
  1557     070B                     u4641:
  1558     070B  2F53               	goto	l3651
  1559     070C                     u4640:
  1560     070C                     l3643:
  1561                           
  1562                           ;main.c: 127:                 POT2 = valor_recibido;
  1563     070C  0875               	movf	_valor_recibido,w
  1564     070D  00F1               	movwf	_POT2
  1565     070E                     l3645:
  1566                           
  1567                           ;main.c: 128:                 VOLTAJE_2 = map(POT2, 0, 254, 0, 500);
  1568     070E  1683               	bsf	3,5	;RP0=1, select bank1
  1569     070F  1303               	bcf	3,6	;RP1=0, select bank1
  1570     0710  01B0               	clrf	map@x0^(0+128)
  1571     0711  30FE               	movlw	254
  1572     0712  00B1               	movwf	map@x1^(0+128)
  1573     0713  3000               	movlw	0
  1574     0714  00B2               	movwf	map@y0^(0+128)
  1575     0715  00B3               	movwf	(map@y0+1)^(0+128)
  1576     0716  30F4               	movlw	244
  1577     0717  00B4               	movwf	map@y1^(0+128)
  1578     0718  3001               	movlw	1
  1579     0719  00B5               	movwf	(map@y1^(0+128)+1)
  1580     071A  0871               	movf	_POT2,w
  1581     071B  120A  158A  248B  120A  118A  	fcall	_map
  1582     0720  1683               	bsf	3,5	;RP0=1, select bank1
  1583     0721  1303               	bcf	3,6	;RP1=0, select bank1
  1584     0722  0831               	movf	(?_map+1)^(0+128),w
  1585     0723  00C0               	movwf	(_VOLTAJE_2+1)^(0+128)
  1586     0724  0830               	movf	?_map^(0+128),w
  1587     0725  00BF               	movwf	_VOLTAJE_2^(0+128)
  1588     0726                     l3647:
  1589                           
  1590                           ;main.c: 129:                 init_POT_2 = VOLTAJE_2/100;
  1591     0726  3064               	movlw	100
  1592     0727  1283               	bcf	3,5	;RP0=0, select bank0
  1593     0728  1303               	bcf	3,6	;RP1=0, select bank0
  1594     0729  00A0               	movwf	___lwdiv@divisor
  1595     072A  3000               	movlw	0
  1596     072B  00A1               	movwf	___lwdiv@divisor+1
  1597     072C  1683               	bsf	3,5	;RP0=1, select bank1
  1598     072D  1303               	bcf	3,6	;RP1=0, select bank1
  1599     072E  0840               	movf	(_VOLTAJE_2+1)^(0+128),w
  1600     072F  1283               	bcf	3,5	;RP0=0, select bank0
  1601     0730  1303               	bcf	3,6	;RP1=0, select bank0
  1602     0731  00A3               	movwf	___lwdiv@dividend+1
  1603     0732  1683               	bsf	3,5	;RP0=1, select bank1
  1604     0733  1303               	bcf	3,6	;RP1=0, select bank1
  1605     0734  083F               	movf	_VOLTAJE_2^(0+128),w
  1606     0735  1283               	bcf	3,5	;RP0=0, select bank0
  1607     0736  1303               	bcf	3,6	;RP1=0, select bank0
  1608     0737  00A2               	movwf	___lwdiv@dividend
  1609     0738  120A  158A  216C  120A  118A  	fcall	___lwdiv
  1610     073D  1283               	bcf	3,5	;RP0=0, select bank0
  1611     073E  1303               	bcf	3,6	;RP1=0, select bank0
  1612     073F  0820               	movf	?___lwdiv,w
  1613     0740  1683               	bsf	3,5	;RP0=1, select bank1
  1614     0741  1303               	bcf	3,6	;RP1=0, select bank1
  1615     0742  00C4               	movwf	_init_POT_2^(0+128)
  1616     0743                     l3649:
  1617                           
  1618                           ;main.c: 130:                 dec_POT_2 = VOLTAJE_2-init_POT_2*100;
  1619     0743  309C               	movlw	156
  1620     0744  1283               	bcf	3,5	;RP0=0, select bank0
  1621     0745  1303               	bcf	3,6	;RP1=0, select bank0
  1622     0746  00A0               	movwf	___bmul@multiplicand
  1623     0747  1683               	bsf	3,5	;RP0=1, select bank1
  1624     0748  1303               	bcf	3,6	;RP1=0, select bank1
  1625     0749  0844               	movf	_init_POT_2^(0+128),w
  1626     074A  160A  118A  2762  120A  118A  	fcall	___bmul
  1627     074F  1683               	bsf	3,5	;RP0=1, select bank1
  1628     0750  1303               	bcf	3,6	;RP1=0, select bank1
  1629     0751  073F               	addwf	_VOLTAJE_2^(0+128),w
  1630     0752  00C3               	movwf	_dec_POT_2^(0+128)
  1631     0753                     l3651:
  1632                           
  1633                           ;main.c: 133:             sprintf(s, "  %d.%d    %d.%d ", init_POT_1, dec_POT_1, init_PO
      +                          T_2, dec_POT_2);
  1634     0753  300B               	movlw	(low ((STR_2-__stringbase)| (0+32768)))& (0+255)
  1635     0754  1283               	bcf	3,5	;RP0=0, select bank0
  1636     0755  1303               	bcf	3,6	;RP1=0, select bank0
  1637     0756  00AE               	movwf	sprintf@f
  1638     0757  1683               	bsf	3,5	;RP0=1, select bank1
  1639     0758  1303               	bcf	3,6	;RP1=0, select bank1
  1640     0759  0846               	movf	_init_POT_1^(0+128),w
  1641     075A  00B7               	movwf	??_main^(0+128)
  1642     075B  01B8               	clrf	(??_main^(0+128)+1)
  1643     075C  0837               	movf	??_main^(0+128),w
  1644     075D  1283               	bcf	3,5	;RP0=0, select bank0
  1645     075E  1303               	bcf	3,6	;RP1=0, select bank0
  1646     075F  00AF               	movwf	?_sprintf+1
  1647     0760  1683               	bsf	3,5	;RP0=1, select bank1
  1648     0761  1303               	bcf	3,6	;RP1=0, select bank1
  1649     0762  0838               	movf	(??_main+1)^(0+128),w
  1650     0763  1283               	bcf	3,5	;RP0=0, select bank0
  1651     0764  1303               	bcf	3,6	;RP1=0, select bank0
  1652     0765  00B0               	movwf	?_sprintf+2
  1653     0766  1683               	bsf	3,5	;RP0=1, select bank1
  1654     0767  1303               	bcf	3,6	;RP1=0, select bank1
  1655     0768  0845               	movf	_dec_POT_1^(0+128),w
  1656     0769  00B9               	movwf	(??_main+2)^(0+128)
  1657     076A  01BA               	clrf	((??_main+2)^(0+128)+1)
  1658     076B  0839               	movf	(??_main+2)^(0+128),w
  1659     076C  1283               	bcf	3,5	;RP0=0, select bank0
  1660     076D  1303               	bcf	3,6	;RP1=0, select bank0
  1661     076E  00B1               	movwf	?_sprintf+3
  1662     076F  1683               	bsf	3,5	;RP0=1, select bank1
  1663     0770  1303               	bcf	3,6	;RP1=0, select bank1
  1664     0771  083A               	movf	(??_main+3)^(0+128),w
  1665     0772  1283               	bcf	3,5	;RP0=0, select bank0
  1666     0773  1303               	bcf	3,6	;RP1=0, select bank0
  1667     0774  00B2               	movwf	?_sprintf+4
  1668     0775  1683               	bsf	3,5	;RP0=1, select bank1
  1669     0776  1303               	bcf	3,6	;RP1=0, select bank1
  1670     0777  0844               	movf	_init_POT_2^(0+128),w
  1671     0778  00BB               	movwf	(??_main+4)^(0+128)
  1672     0779  01BC               	clrf	((??_main+4)^(0+128)+1)
  1673     077A  083B               	movf	(??_main+4)^(0+128),w
  1674     077B  1283               	bcf	3,5	;RP0=0, select bank0
  1675     077C  1303               	bcf	3,6	;RP1=0, select bank0
  1676     077D  00B3               	movwf	?_sprintf+5
  1677     077E  1683               	bsf	3,5	;RP0=1, select bank1
  1678     077F  1303               	bcf	3,6	;RP1=0, select bank1
  1679     0780  083C               	movf	(??_main+5)^(0+128),w
  1680     0781  1283               	bcf	3,5	;RP0=0, select bank0
  1681     0782  1303               	bcf	3,6	;RP1=0, select bank0
  1682     0783  00B4               	movwf	?_sprintf+6
  1683     0784  1683               	bsf	3,5	;RP0=1, select bank1
  1684     0785  1303               	bcf	3,6	;RP1=0, select bank1
  1685     0786  0843               	movf	_dec_POT_2^(0+128),w
  1686     0787  00BD               	movwf	(??_main+6)^(0+128)
  1687     0788  01BE               	clrf	((??_main+6)^(0+128)+1)
  1688     0789  083D               	movf	(??_main+6)^(0+128),w
  1689     078A  1283               	bcf	3,5	;RP0=0, select bank0
  1690     078B  1303               	bcf	3,6	;RP1=0, select bank0
  1691     078C  00B5               	movwf	?_sprintf+7
  1692     078D  1683               	bsf	3,5	;RP0=1, select bank1
  1693     078E  1303               	bcf	3,6	;RP1=0, select bank1
  1694     078F  083E               	movf	(??_main+7)^(0+128),w
  1695     0790  1283               	bcf	3,5	;RP0=0, select bank0
  1696     0791  1303               	bcf	3,6	;RP1=0, select bank0
  1697     0792  00B6               	movwf	?_sprintf+8
  1698     0793  30CC               	movlw	(low (_s| 0))& (0+255)
  1699     0794  120A  158A  2551  120A  118A  	fcall	_sprintf
  1700     0799                     l3653:
  1701                           
  1702                           ;main.c: 134:             Lcd_Set_Cursor(2,1);
  1703     0799  1283               	bcf	3,5	;RP0=0, select bank0
  1704     079A  1303               	bcf	3,6	;RP1=0, select bank0
  1705     079B  01A4               	clrf	Lcd_Set_Cursor@b
  1706     079C  0AA4               	incf	Lcd_Set_Cursor@b,f
  1707     079D  3002               	movlw	2
  1708     079E  120A  158A  21FD  120A  118A  	fcall	_Lcd_Set_Cursor
  1709     07A3                     l3655:
  1710                           
  1711                           ;main.c: 135:             Lcd_Write_String(s);
  1712     07A3  30CC               	movlw	(low (_s| 0))& (0+255)
  1713     07A4  1283               	bcf	3,5	;RP0=0, select bank0
  1714     07A5  1303               	bcf	3,6	;RP1=0, select bank0
  1715     07A6  00A5               	movwf	Lcd_Write_String@a
  1716     07A7  3000               	movlw	0
  1717     07A8  00A6               	movwf	Lcd_Write_String@a+1
  1718     07A9  120A  158A  2126  120A  118A  	fcall	_Lcd_Write_String
  1719     07AE  2E7C               	goto	l3611
  1720     07AF                     l113:	
  1721                           ;main.c: 141:     else if(PORTCbits.RC0 == 0){
  1722                           
  1723     07AF  1807               	btfsc	7,0	;volatile
  1724     07B0  2FB2               	goto	u4651
  1725     07B1  2FB3               	goto	u4650
  1726     07B2                     u4651:
  1727     07B2  2FDB               	goto	l128
  1728     07B3                     u4650:
  1729     07B3                     l3657:
  1730                           
  1731                           ;main.c: 142:         setup2();
  1732     07B3  120A  158A  20E4  120A  118A  	fcall	_setup2
  1733     07B8                     l3659:
  1734                           
  1735                           ;main.c: 144:             if (canal_ADC == 0){
  1736     07B8  0873               	movf	_canal_ADC,w
  1737     07B9  1D03               	btfss	3,2
  1738     07BA  2FBC               	goto	u4661
  1739     07BB  2FBD               	goto	u4660
  1740     07BC                     u4661:
  1741     07BC  2FC6               	goto	l3665
  1742     07BD                     u4660:
  1743     07BD                     l3661:
  1744                           
  1745                           ;main.c: 145:                 adc_start(0);
  1746     07BD  3000               	movlw	0
  1747     07BE  160A  118A  27B3  120A  118A  	fcall	_adc_start
  1748     07C3                     l3663:
  1749                           
  1750                           ;main.c: 146:                 canal_ADC = 1;
  1751     07C3  01F3               	clrf	_canal_ADC
  1752     07C4  0AF3               	incf	_canal_ADC,f
  1753                           
  1754                           ;main.c: 147:             }
  1755     07C5  2FD2               	goto	l3671
  1756     07C6                     l3665:
  1757     07C6  0373               	decf	_canal_ADC,w
  1758     07C7  1D03               	btfss	3,2
  1759     07C8  2FCA               	goto	u4671
  1760     07C9  2FCB               	goto	u4670
  1761     07CA                     u4671:
  1762     07CA  2FD2               	goto	l3671
  1763     07CB                     u4670:
  1764     07CB                     l3667:
  1765                           
  1766                           ;main.c: 149:                 adc_start(1);
  1767     07CB  3001               	movlw	1
  1768     07CC  160A  118A  27B3  120A  118A  	fcall	_adc_start
  1769     07D1                     l3669:
  1770                           
  1771                           ;main.c: 150:                 canal_ADC = 0;
  1772     07D1  01F3               	clrf	_canal_ADC
  1773     07D2                     l3671:
  1774                           
  1775                           ;main.c: 152:             POT1_ENVIO = POT1 & 0b11111110;
  1776     07D2  0872               	movf	_POT1,w
  1777     07D3  39FE               	andlw	254
  1778     07D4  1683               	bsf	3,5	;RP0=1, select bank1
  1779     07D5  1303               	bcf	3,6	;RP1=0, select bank1
  1780     07D6  00C8               	movwf	_POT1_ENVIO^(0+128)
  1781     07D7                     l3673:
  1782                           
  1783                           ;main.c: 153:             POT2_ENVIO = POT2 | 0b00000001;
  1784     07D7  0871               	movf	_POT2,w
  1785     07D8  3801               	iorlw	1
  1786     07D9  00C7               	movwf	_POT2_ENVIO^(0+128)
  1787     07DA  2FB8               	goto	l3659
  1788     07DB                     l128:
  1789     07DB  120A  118A  280C   	ljmp	start
  1790     07DE                     __end_of_main:
  1791                           
  1792                           	psect	text1
  1793     0D51                     __ptext1:	
  1794 ;; *************** function _sprintf *****************
  1795 ;; Defined at:
  1796 ;;		line 505 in file "C:\Program Files\Microchip\xc8\v2.40\pic\sources\c90\common\doprnt.c"
  1797 ;; Parameters:    Size  Location     Type
  1798 ;;  sp              1    wreg     PTR unsigned char 
  1799 ;;		 -> s(1), 
  1800 ;;  f               1   14[BANK0 ] PTR const unsigned char 
  1801 ;;		 -> STR_2(18), 
  1802 ;; Auto vars:     Size  Location     Type
  1803 ;;  sp              1   31[BANK0 ] PTR unsigned char 
  1804 ;;		 -> s(1), 
  1805 ;;  tmpval          4    0        struct .
  1806 ;;  val             2   29[BANK0 ] unsigned int 
  1807 ;;  cp              2    0        PTR const unsigned char 
  1808 ;;  len             2    0        unsigned int 
  1809 ;;  c               1   32[BANK0 ] unsigned char 
  1810 ;;  prec            1   28[BANK0 ] char 
  1811 ;;  flag            1   27[BANK0 ] unsigned char 
  1812 ;;  ap              1   26[BANK0 ] PTR void [1]
  1813 ;;		 -> ?_sprintf(2), 
  1814 ;; Return value:  Size  Location     Type
  1815 ;;                  2   14[BANK0 ] int 
  1816 ;; Registers used:
  1817 ;;		wreg, fsr0l, fsr0h, status,2, status,0, btemp+1, pclath, cstack
  1818 ;; Tracked objects:
  1819 ;;		On entry : 0/0
  1820 ;;		On exit  : 0/0
  1821 ;;		Unchanged: 0/0
  1822 ;; Data sizes:     COMMON   BANK0   BANK1   BANK3   BANK2
  1823 ;;      Params:         0       9       0       0       0
  1824 ;;      Locals:         0       7       0       0       0
  1825 ;;      Temps:          0       3       0       0       0
  1826 ;;      Totals:         0      19       0       0       0
  1827 ;;Total ram usage:       19 bytes
  1828 ;; Hardware stack levels used: 1
  1829 ;; Hardware stack levels required when called: 3
  1830 ;; This function calls:
  1831 ;;		___lwdiv
  1832 ;;		___lwmod
  1833 ;; This function is called by:
  1834 ;;		_main
  1835 ;; This function uses a non-reentrant model
  1836 ;;
  1837                           
  1838     0D51                     _sprintf:	
  1839                           ;psect for function _sprintf
  1840                           
  1841                           
  1842                           ;incstack = 0
  1843                           ; Regs used in _sprintf: [wreg-fsr0h+status,2+status,0+btemp+1+pclath+cstack]
  1844                           ;sprintf@sp stored from wreg
  1845     0D51  1283               	bcf	3,5	;RP0=0, select bank0
  1846     0D52  1303               	bcf	3,6	;RP1=0, select bank0
  1847     0D53  00BF               	movwf	sprintf@sp
  1848     0D54                     l3489:
  1849                           
  1850                           ;C:\Program Files\Microchip\xc8\v2.40\pic\sources\c90\common\doprnt.c: 505: sprintf(char
      +                           * sp, const char * f, ...);C:\Program Files\Microchip\xc8\v2.40\pic\sources\c90\common\
      +                          doprnt.c: 506: {;C:\Program Files\Microchip\xc8\v2.40\pic\sources\c90\common\doprnt.c: 5
      +                          07:  va_list ap;;C:\Program Files\Microchip\xc8\v2.40\pic\sources\c90\common\doprnt.c: 5
      +                          12:  char c;;C:\Program Files\Microchip\xc8\v2.40\pic\sources\c90\common\doprnt.c: 521: 
      +                           signed char prec;;C:\Program Files\Microchip\xc8\v2.40\pic\sources\c90\common\doprnt.c:
      +                           525:  unsigned char flag;
  1851     0D54  302F               	movlw	(low ((?_sprintf| 0+1)))& (0+255)
  1852     0D55  00BA               	movwf	sprintf@ap
  1853                           
  1854                           ;C:\Program Files\Microchip\xc8\v2.40\pic\sources\c90\common\doprnt.c: 553:  while((c = 
      +                          *f++)) {
  1855     0D56  2E18               	goto	l3541
  1856     0D57                     l3491:
  1857                           
  1858                           ;C:\Program Files\Microchip\xc8\v2.40\pic\sources\c90\common\doprnt.c: 555:   if(c != '%
      +                          ')
  1859     0D57  3025               	movlw	37
  1860     0D58  0640               	xorwf	sprintf@c,w
  1861     0D59  1903               	btfsc	3,2
  1862     0D5A  2D5C               	goto	u4511
  1863     0D5B  2D5D               	goto	u4510
  1864     0D5C                     u4511:
  1865     0D5C  2D67               	goto	l3497
  1866     0D5D                     u4510:
  1867     0D5D                     l3493:
  1868                           
  1869                           ;C:\Program Files\Microchip\xc8\v2.40\pic\sources\c90\common\doprnt.c: 557:   {;C:\Progr
      +                          am Files\Microchip\xc8\v2.40\pic\sources\c90\common\doprnt.c: 558:    ((*sp++ = (c)));
  1870     0D5D  083F               	movf	sprintf@sp,w
  1871     0D5E  0084               	movwf	4
  1872     0D5F  0840               	movf	sprintf@c,w
  1873     0D60  1383               	bcf	3,7	;select IRP bank0
  1874     0D61  0080               	movwf	0
  1875     0D62                     l3495:
  1876     0D62  3001               	movlw	1
  1877     0D63  00B7               	movwf	??_sprintf
  1878     0D64  0837               	movf	??_sprintf,w
  1879     0D65  07BF               	addwf	sprintf@sp,f
  1880                           
  1881                           ;C:\Program Files\Microchip\xc8\v2.40\pic\sources\c90\common\doprnt.c: 559:    continue;
  1882     0D66  2E18               	goto	l3541
  1883     0D67                     l3497:
  1884                           
  1885                           ;C:\Program Files\Microchip\xc8\v2.40\pic\sources\c90\common\doprnt.c: 565:   flag = 0;
  1886     0D67  01BB               	clrf	sprintf@flag
  1887     0D68                     l3501:	
  1888                           ;C:\Program Files\Microchip\xc8\v2.40\pic\sources\c90\common\doprnt.c: 661:   switch(c =
      +                           *f++) {
  1889                           
  1890     0D68  3001               	movlw	1
  1891     0D69  07AE               	addwf	sprintf@f,f
  1892     0D6A  30FF               	movlw	-1
  1893     0D6B  072E               	addwf	sprintf@f,w
  1894     0D6C  0084               	movwf	4
  1895     0D6D  120A  158A  200A  120A  158A  	fcall	stringdir
  1896     0D72  00C0               	movwf	sprintf@c
  1897     0D73  00B7               	movwf	??_sprintf
  1898     0D74  01B8               	clrf	??_sprintf+1
  1899                           
  1900                           ; Switch on 2 bytes has been partitioned into a top level switch of size 1, and 1 sub-sw
      +                          itches
  1901                           ; Switch size 1, requested type "simple"
  1902                           ; Number of cases is 1, Range of values is 0 to 0
  1903                           ; switch strategies available:
  1904                           ; Name         Instructions Cycles
  1905                           ; simple_byte            4     3 (average)
  1906                           ; direct_byte           11     8 (fixed)
  1907                           ; jumptable            260     6 (fixed)
  1908                           ;	Chosen strategy is simple_byte
  1909     0D75  0838               	movf	??_sprintf+1,w
  1910     0D76  3A00               	xorlw	0	; case 0
  1911     0D77  1903               	skipnz
  1912     0D78  2D7A               	goto	l3751
  1913     0D79  2E18               	goto	l3541
  1914     0D7A                     l3751:
  1915                           
  1916                           ; Switch size 1, requested type "simple"
  1917                           ; Number of cases is 3, Range of values is 0 to 105
  1918                           ; switch strategies available:
  1919                           ; Name         Instructions Cycles
  1920                           ; simple_byte           10     6 (average)
  1921                           ; jumptable            260     6 (fixed)
  1922                           ;	Chosen strategy is simple_byte
  1923     0D7A  0837               	movf	??_sprintf,w
  1924     0D7B  3A00               	xorlw	0	; case 0
  1925     0D7C  1903               	skipnz
  1926     0D7D  2E28               	goto	l3543
  1927     0D7E  3A64               	xorlw	100	; case 100
  1928     0D7F  1903               	skipnz
  1929     0D80  2D85               	goto	l3503
  1930     0D81  3A0D               	xorlw	13	; case 105
  1931     0D82  1903               	skipnz
  1932     0D83  2D85               	goto	l3503
  1933     0D84  2E18               	goto	l3541
  1934     0D85                     l3503:
  1935                           
  1936                           ;C:\Program Files\Microchip\xc8\v2.40\pic\sources\c90\common\doprnt.c: 1279:   {;C:\Prog
      +                          ram Files\Microchip\xc8\v2.40\pic\sources\c90\common\doprnt.c: 1285:     val = (unsigned
      +                           int)(*(int *)__va_arg((*(int **)ap), (int)0));
  1937     0D85  083A               	movf	sprintf@ap,w
  1938     0D86  0084               	movwf	4
  1939     0D87  1383               	bcf	3,7	;select IRP bank0
  1940     0D88  0800               	movf	0,w
  1941     0D89  00BD               	movwf	sprintf@val
  1942     0D8A  0A84               	incf	4,f
  1943     0D8B  0800               	movf	0,w
  1944     0D8C  00BE               	movwf	sprintf@val+1
  1945     0D8D                     l3505:
  1946     0D8D  3002               	movlw	2
  1947     0D8E  00B7               	movwf	??_sprintf
  1948     0D8F  0837               	movf	??_sprintf,w
  1949     0D90  07BA               	addwf	sprintf@ap,f
  1950     0D91                     l3507:
  1951                           
  1952                           ;C:\Program Files\Microchip\xc8\v2.40\pic\sources\c90\common\doprnt.c: 1287:    if((int)
      +                          val < 0) {
  1953     0D91  1FBE               	btfss	sprintf@val+1,7
  1954     0D92  2D94               	goto	u4521
  1955     0D93  2D95               	goto	u4520
  1956     0D94                     u4521:
  1957     0D94  2D9E               	goto	l3513
  1958     0D95                     u4520:
  1959     0D95                     l3509:
  1960                           
  1961                           ;C:\Program Files\Microchip\xc8\v2.40\pic\sources\c90\common\doprnt.c: 1288:     flag |=
      +                           0x03;
  1962     0D95  3003               	movlw	3
  1963     0D96  00B7               	movwf	??_sprintf
  1964     0D97  0837               	movf	??_sprintf,w
  1965     0D98  04BB               	iorwf	sprintf@flag,f
  1966     0D99                     l3511:
  1967                           
  1968                           ;C:\Program Files\Microchip\xc8\v2.40\pic\sources\c90\common\doprnt.c: 1289:     val = -
      +                          val;
  1969     0D99  09BD               	comf	sprintf@val,f
  1970     0D9A  09BE               	comf	sprintf@val+1,f
  1971     0D9B  0ABD               	incf	sprintf@val,f
  1972     0D9C  1903               	skipnz
  1973     0D9D  0ABE               	incf	sprintf@val+1,f
  1974     0D9E                     l3513:
  1975                           
  1976                           ;C:\Program Files\Microchip\xc8\v2.40\pic\sources\c90\common\doprnt.c: 1292:   };C:\Prog
      +                          ram Files\Microchip\xc8\v2.40\pic\sources\c90\common\doprnt.c: 1331:    for(c = 1 ; c !=
      +                           sizeof dpowers/sizeof dpowers[0] ; c++)
  1977     0D9E  01C0               	clrf	sprintf@c
  1978     0D9F  0AC0               	incf	sprintf@c,f
  1979     0DA0                     l3519:
  1980                           
  1981                           ;C:\Program Files\Microchip\xc8\v2.40\pic\sources\c90\common\doprnt.c: 1332:     if(val 
      +                          < dpowers[c])
  1982     0DA0  0840               	movf	sprintf@c,w
  1983     0DA1  00B7               	movwf	??_sprintf
  1984     0DA2  0737               	addwf	??_sprintf,w
  1985     0DA3  3E01               	addlw	low ((_dpowers-__stringbase)| (0+32768))
  1986     0DA4  0084               	movwf	4
  1987     0DA5  120A  158A  200A  120A  158A  	fcall	stringdir
  1988     0DAA  00B8               	movwf	??_sprintf+1
  1989     0DAB  120A  158A  200A  120A  158A  	fcall	stringdir
  1990     0DB0  00B9               	movwf	??_sprintf+2
  1991     0DB1  0839               	movf	??_sprintf+2,w
  1992     0DB2  023E               	subwf	sprintf@val+1,w
  1993     0DB3  1D03               	skipz
  1994     0DB4  2DB7               	goto	u4535
  1995     0DB5  0838               	movf	??_sprintf+1,w
  1996     0DB6  023D               	subwf	sprintf@val,w
  1997     0DB7                     u4535:
  1998     0DB7  1803               	skipnc
  1999     0DB8  2DBA               	goto	u4531
  2000     0DB9  2DBB               	goto	u4530
  2001     0DBA                     u4531:
  2002     0DBA  2DBC               	goto	l3523
  2003     0DBB                     u4530:
  2004     0DBB  2DC6               	goto	l3525
  2005     0DBC                     l3523:
  2006     0DBC  3001               	movlw	1
  2007     0DBD  00B7               	movwf	??_sprintf
  2008     0DBE  0837               	movf	??_sprintf,w
  2009     0DBF  07C0               	addwf	sprintf@c,f
  2010     0DC0  3005               	movlw	5
  2011     0DC1  0640               	xorwf	sprintf@c,w
  2012     0DC2  1D03               	btfss	3,2
  2013     0DC3  2DC5               	goto	u4541
  2014     0DC4  2DC6               	goto	u4540
  2015     0DC5                     u4541:
  2016     0DC5  2DA0               	goto	l3519
  2017     0DC6                     u4540:
  2018     0DC6                     l3525:
  2019                           
  2020                           ;C:\Program Files\Microchip\xc8\v2.40\pic\sources\c90\common\doprnt.c: 1448:   {;C:\Prog
      +                          ram Files\Microchip\xc8\v2.40\pic\sources\c90\common\doprnt.c: 1464:    if(flag & 0x03)
  2021     0DC6  083B               	movf	sprintf@flag,w
  2022     0DC7  3903               	andlw	3
  2023     0DC8  1903               	btfsc	3,2
  2024     0DC9  2DCB               	goto	u4551
  2025     0DCA  2DCC               	goto	u4550
  2026     0DCB                     u4551:
  2027     0DCB  2DD5               	goto	l3531
  2028     0DCC                     u4550:
  2029     0DCC                     l3527:
  2030                           
  2031                           ;C:\Program Files\Microchip\xc8\v2.40\pic\sources\c90\common\doprnt.c: 1465:     ((*sp++
      +                           = ('-')));
  2032     0DCC  083F               	movf	sprintf@sp,w
  2033     0DCD  0084               	movwf	4
  2034     0DCE  302D               	movlw	45
  2035     0DCF  1383               	bcf	3,7	;select IRP bank0
  2036     0DD0  0080               	movwf	0
  2037     0DD1                     l3529:
  2038     0DD1  3001               	movlw	1
  2039     0DD2  00B7               	movwf	??_sprintf
  2040     0DD3  0837               	movf	??_sprintf,w
  2041     0DD4  07BF               	addwf	sprintf@sp,f
  2042     0DD5                     l3531:
  2043                           
  2044                           ;C:\Program Files\Microchip\xc8\v2.40\pic\sources\c90\common\doprnt.c: 1495:   };C:\Prog
      +                          ram Files\Microchip\xc8\v2.40\pic\sources\c90\common\doprnt.c: 1498:   prec = c;
  2045     0DD5  0840               	movf	sprintf@c,w
  2046     0DD6  00BC               	movwf	sprintf@prec
  2047                           
  2048                           ;C:\Program Files\Microchip\xc8\v2.40\pic\sources\c90\common\doprnt.c: 1500:   while(pre
      +                          c--) {
  2049     0DD7  2E0F               	goto	l3539
  2050     0DD8                     l3533:
  2051                           
  2052                           ;C:\Program Files\Microchip\xc8\v2.40\pic\sources\c90\common\doprnt.c: 1504:    {;C:\Pro
      +                          gram Files\Microchip\xc8\v2.40\pic\sources\c90\common\doprnt.c: 1515:     c = (val / dpo
      +                          wers[(unsigned char)prec]) % 10 + '0';
  2053     0DD8  300A               	movlw	10
  2054     0DD9  00A8               	movwf	___lwmod@divisor
  2055     0DDA  3000               	movlw	0
  2056     0DDB  00A9               	movwf	___lwmod@divisor+1
  2057     0DDC  083C               	movf	sprintf@prec,w
  2058     0DDD  00B7               	movwf	??_sprintf
  2059     0DDE  0737               	addwf	??_sprintf,w
  2060     0DDF  3E01               	addlw	low ((_dpowers-__stringbase)| (0+32768))
  2061     0DE0  0084               	movwf	4
  2062     0DE1  120A  158A  200A  120A  158A  	fcall	stringdir
  2063     0DE6  00A0               	movwf	___lwdiv@divisor
  2064     0DE7  120A  158A  200A  120A  158A  	fcall	stringdir
  2065     0DEC  00A1               	movwf	___lwdiv@divisor+1
  2066     0DED  083E               	movf	sprintf@val+1,w
  2067     0DEE  00A3               	movwf	___lwdiv@dividend+1
  2068     0DEF  083D               	movf	sprintf@val,w
  2069     0DF0  00A2               	movwf	___lwdiv@dividend
  2070     0DF1  120A  158A  216C  120A  158A  	fcall	___lwdiv
  2071     0DF6  1283               	bcf	3,5	;RP0=0, select bank0
  2072     0DF7  1303               	bcf	3,6	;RP1=0, select bank0
  2073     0DF8  0821               	movf	?___lwdiv+1,w
  2074     0DF9  00AB               	movwf	___lwmod@dividend+1
  2075     0DFA  0820               	movf	?___lwdiv,w
  2076     0DFB  00AA               	movwf	___lwmod@dividend
  2077     0DFC  120A  158A  20A8  120A  158A  	fcall	___lwmod
  2078     0E01  1283               	bcf	3,5	;RP0=0, select bank0
  2079     0E02  1303               	bcf	3,6	;RP1=0, select bank0
  2080     0E03  0828               	movf	?___lwmod,w
  2081     0E04  3E30               	addlw	48
  2082     0E05  00C0               	movwf	sprintf@c
  2083     0E06                     l3535:
  2084                           
  2085                           ;C:\Program Files\Microchip\xc8\v2.40\pic\sources\c90\common\doprnt.c: 1549:    };C:\Pro
      +                          gram Files\Microchip\xc8\v2.40\pic\sources\c90\common\doprnt.c: 1550:    ((*sp++ = (c)))
      +                          ;
  2086     0E06  083F               	movf	sprintf@sp,w
  2087     0E07  0084               	movwf	4
  2088     0E08  0840               	movf	sprintf@c,w
  2089     0E09  1383               	bcf	3,7	;select IRP bank0
  2090     0E0A  0080               	movwf	0
  2091     0E0B                     l3537:
  2092     0E0B  3001               	movlw	1
  2093     0E0C  00B7               	movwf	??_sprintf
  2094     0E0D  0837               	movf	??_sprintf,w
  2095     0E0E  07BF               	addwf	sprintf@sp,f
  2096     0E0F                     l3539:
  2097                           
  2098                           ;C:\Program Files\Microchip\xc8\v2.40\pic\sources\c90\common\doprnt.c: 1500:   while(pre
      +                          c--) {
  2099     0E0F  30FF               	movlw	255
  2100     0E10  00B7               	movwf	??_sprintf
  2101     0E11  0837               	movf	??_sprintf,w
  2102     0E12  07BC               	addwf	sprintf@prec,f
  2103     0E13  0A3C               	incf	sprintf@prec,w
  2104     0E14  1D03               	btfss	3,2
  2105     0E15  2E17               	goto	u4561
  2106     0E16  2E18               	goto	u4560
  2107     0E17                     u4561:
  2108     0E17  2DD8               	goto	l3533
  2109     0E18                     u4560:
  2110     0E18                     l3541:
  2111                           
  2112                           ;C:\Program Files\Microchip\xc8\v2.40\pic\sources\c90\common\doprnt.c: 553:  while((c = 
      +                          *f++)) {
  2113     0E18  3001               	movlw	1
  2114     0E19  07AE               	addwf	sprintf@f,f
  2115     0E1A  30FF               	movlw	-1
  2116     0E1B  072E               	addwf	sprintf@f,w
  2117     0E1C  0084               	movwf	4
  2118     0E1D  120A  158A  200A  120A  158A  	fcall	stringdir
  2119     0E22  00C0               	movwf	sprintf@c
  2120     0E23  0840               	movf	sprintf@c,w
  2121     0E24  1D03               	btfss	3,2
  2122     0E25  2E27               	goto	u4571
  2123     0E26  2E28               	goto	u4570
  2124     0E27                     u4571:
  2125     0E27  2D57               	goto	l3491
  2126     0E28                     u4570:
  2127     0E28                     l3543:
  2128                           
  2129                           ;C:\Program Files\Microchip\xc8\v2.40\pic\sources\c90\common\doprnt.c: 1564:  *sp = 0;
  2130     0E28  083F               	movf	sprintf@sp,w
  2131     0E29  0084               	movwf	4
  2132     0E2A  1383               	bcf	3,7	;select IRP bank0
  2133     0E2B  0180               	clrf	0
  2134     0E2C                     l411:
  2135     0E2C  0008               	return
  2136     0E2D                     __end_of_sprintf:
  2137                           
  2138                           	psect	text2
  2139     08A8                     __ptext2:	
  2140 ;; *************** function ___lwmod *****************
  2141 ;; Defined at:
  2142 ;;		line 5 in file "C:\Program Files\Microchip\xc8\v2.40\pic\sources\c90\common\lwmod.c"
  2143 ;; Parameters:    Size  Location     Type
  2144 ;;  divisor         2    8[BANK0 ] unsigned int 
  2145 ;;  dividend        2   10[BANK0 ] unsigned int 
  2146 ;; Auto vars:     Size  Location     Type
  2147 ;;  counter         1   13[BANK0 ] unsigned char 
  2148 ;; Return value:  Size  Location     Type
  2149 ;;                  2    8[BANK0 ] unsigned int 
  2150 ;; Registers used:
  2151 ;;		wreg, status,2, status,0
  2152 ;; Tracked objects:
  2153 ;;		On entry : 0/0
  2154 ;;		On exit  : 0/0
  2155 ;;		Unchanged: 0/0
  2156 ;; Data sizes:     COMMON   BANK0   BANK1   BANK3   BANK2
  2157 ;;      Params:         0       4       0       0       0
  2158 ;;      Locals:         0       1       0       0       0
  2159 ;;      Temps:          0       1       0       0       0
  2160 ;;      Totals:         0       6       0       0       0
  2161 ;;Total ram usage:        6 bytes
  2162 ;; Hardware stack levels used: 1
  2163 ;; Hardware stack levels required when called: 2
  2164 ;; This function calls:
  2165 ;;		Nothing
  2166 ;; This function is called by:
  2167 ;;		_sprintf
  2168 ;; This function uses a non-reentrant model
  2169 ;;
  2170                           
  2171     08A8                     ___lwmod:	
  2172                           ;psect for function ___lwmod
  2173                           
  2174     08A8                     l3275:	
  2175                           ;incstack = 0
  2176                           ; Regs used in ___lwmod: [wreg+status,2+status,0]
  2177                           
  2178     08A8  1283               	bcf	3,5	;RP0=0, select bank0
  2179     08A9  1303               	bcf	3,6	;RP1=0, select bank0
  2180     08AA  0828               	movf	___lwmod@divisor,w
  2181     08AB  0429               	iorwf	___lwmod@divisor+1,w
  2182     08AC  1903               	btfsc	3,2
  2183     08AD  28AF               	goto	u4001
  2184     08AE  28B0               	goto	u4000
  2185     08AF                     u4001:
  2186     08AF  28DF               	goto	l3293
  2187     08B0                     u4000:
  2188     08B0                     l3277:
  2189     08B0  01AD               	clrf	___lwmod@counter
  2190     08B1  0AAD               	incf	___lwmod@counter,f
  2191     08B2  28BE               	goto	l3283
  2192     08B3                     l3279:
  2193     08B3  3001               	movlw	1
  2194     08B4                     u4015:
  2195     08B4  1003               	clrc
  2196     08B5  0DA8               	rlf	___lwmod@divisor,f
  2197     08B6  0DA9               	rlf	___lwmod@divisor+1,f
  2198     08B7  3EFF               	addlw	-1
  2199     08B8  1D03               	skipz
  2200     08B9  28B4               	goto	u4015
  2201     08BA                     l3281:
  2202     08BA  3001               	movlw	1
  2203     08BB  00AC               	movwf	??___lwmod
  2204     08BC  082C               	movf	??___lwmod,w
  2205     08BD  07AD               	addwf	___lwmod@counter,f
  2206     08BE                     l3283:
  2207     08BE  1FA9               	btfss	___lwmod@divisor+1,7
  2208     08BF  28C1               	goto	u4021
  2209     08C0  28C2               	goto	u4020
  2210     08C1                     u4021:
  2211     08C1  28B3               	goto	l3279
  2212     08C2                     u4020:
  2213     08C2                     l3285:
  2214     08C2  0829               	movf	___lwmod@divisor+1,w
  2215     08C3  022B               	subwf	___lwmod@dividend+1,w
  2216     08C4  1D03               	skipz
  2217     08C5  28C8               	goto	u4035
  2218     08C6  0828               	movf	___lwmod@divisor,w
  2219     08C7  022A               	subwf	___lwmod@dividend,w
  2220     08C8                     u4035:
  2221     08C8  1C03               	skipc
  2222     08C9  28CB               	goto	u4031
  2223     08CA  28CC               	goto	u4030
  2224     08CB                     u4031:
  2225     08CB  28D2               	goto	l3289
  2226     08CC                     u4030:
  2227     08CC                     l3287:
  2228     08CC  0828               	movf	___lwmod@divisor,w
  2229     08CD  02AA               	subwf	___lwmod@dividend,f
  2230     08CE  0829               	movf	___lwmod@divisor+1,w
  2231     08CF  1C03               	skipc
  2232     08D0  03AB               	decf	___lwmod@dividend+1,f
  2233     08D1  02AB               	subwf	___lwmod@dividend+1,f
  2234     08D2                     l3289:
  2235     08D2  3001               	movlw	1
  2236     08D3                     u4045:
  2237     08D3  1003               	clrc
  2238     08D4  0CA9               	rrf	___lwmod@divisor+1,f
  2239     08D5  0CA8               	rrf	___lwmod@divisor,f
  2240     08D6  3EFF               	addlw	-1
  2241     08D7  1D03               	skipz
  2242     08D8  28D3               	goto	u4045
  2243     08D9                     l3291:
  2244     08D9  3001               	movlw	1
  2245     08DA  02AD               	subwf	___lwmod@counter,f
  2246     08DB  1D03               	btfss	3,2
  2247     08DC  28DE               	goto	u4051
  2248     08DD  28DF               	goto	u4050
  2249     08DE                     u4051:
  2250     08DE  28C2               	goto	l3285
  2251     08DF                     u4050:
  2252     08DF                     l3293:
  2253     08DF  082B               	movf	___lwmod@dividend+1,w
  2254     08E0  00A9               	movwf	?___lwmod+1
  2255     08E1  082A               	movf	___lwmod@dividend,w
  2256     08E2  00A8               	movwf	?___lwmod
  2257     08E3                     l697:
  2258     08E3  0008               	return
  2259     08E4                     __end_of___lwmod:
  2260                           
  2261                           	psect	text3
  2262     096C                     __ptext3:	
  2263 ;; *************** function ___lwdiv *****************
  2264 ;; Defined at:
  2265 ;;		line 5 in file "C:\Program Files\Microchip\xc8\v2.40\pic\sources\c90\common\lwdiv.c"
  2266 ;; Parameters:    Size  Location     Type
  2267 ;;  divisor         2    0[BANK0 ] unsigned int 
  2268 ;;  dividend        2    2[BANK0 ] unsigned int 
  2269 ;; Auto vars:     Size  Location     Type
  2270 ;;  quotient        2    6[BANK0 ] unsigned int 
  2271 ;;  counter         1    5[BANK0 ] unsigned char 
  2272 ;; Return value:  Size  Location     Type
  2273 ;;                  2    0[BANK0 ] unsigned int 
  2274 ;; Registers used:
  2275 ;;		wreg, status,2, status,0
  2276 ;; Tracked objects:
  2277 ;;		On entry : 0/0
  2278 ;;		On exit  : 0/0
  2279 ;;		Unchanged: 0/0
  2280 ;; Data sizes:     COMMON   BANK0   BANK1   BANK3   BANK2
  2281 ;;      Params:         0       4       0       0       0
  2282 ;;      Locals:         0       3       0       0       0
  2283 ;;      Temps:          0       1       0       0       0
  2284 ;;      Totals:         0       8       0       0       0
  2285 ;;Total ram usage:        8 bytes
  2286 ;; Hardware stack levels used: 1
  2287 ;; Hardware stack levels required when called: 2
  2288 ;; This function calls:
  2289 ;;		Nothing
  2290 ;; This function is called by:
  2291 ;;		_main
  2292 ;;		_sprintf
  2293 ;; This function uses a non-reentrant model
  2294 ;;
  2295                           
  2296     096C                     ___lwdiv:	
  2297                           ;psect for function ___lwdiv
  2298                           
  2299     096C                     l3249:	
  2300                           ;incstack = 0
  2301                           ; Regs used in ___lwdiv: [wreg+status,2+status,0]
  2302                           
  2303     096C  1283               	bcf	3,5	;RP0=0, select bank0
  2304     096D  1303               	bcf	3,6	;RP1=0, select bank0
  2305     096E  01A6               	clrf	___lwdiv@quotient
  2306     096F  01A7               	clrf	___lwdiv@quotient+1
  2307     0970                     l3251:
  2308     0970  0820               	movf	___lwdiv@divisor,w
  2309     0971  0421               	iorwf	___lwdiv@divisor+1,w
  2310     0972  1903               	btfsc	3,2
  2311     0973  2975               	goto	u3931
  2312     0974  2976               	goto	u3930
  2313     0975                     u3931:
  2314     0975  29AD               	goto	l3271
  2315     0976                     u3930:
  2316     0976                     l3253:
  2317     0976  01A5               	clrf	___lwdiv@counter
  2318     0977  0AA5               	incf	___lwdiv@counter,f
  2319     0978  2984               	goto	l3259
  2320     0979                     l3255:
  2321     0979  3001               	movlw	1
  2322     097A                     u3945:
  2323     097A  1003               	clrc
  2324     097B  0DA0               	rlf	___lwdiv@divisor,f
  2325     097C  0DA1               	rlf	___lwdiv@divisor+1,f
  2326     097D  3EFF               	addlw	-1
  2327     097E  1D03               	skipz
  2328     097F  297A               	goto	u3945
  2329     0980                     l3257:
  2330     0980  3001               	movlw	1
  2331     0981  00A4               	movwf	??___lwdiv
  2332     0982  0824               	movf	??___lwdiv,w
  2333     0983  07A5               	addwf	___lwdiv@counter,f
  2334     0984                     l3259:
  2335     0984  1FA1               	btfss	___lwdiv@divisor+1,7
  2336     0985  2987               	goto	u3951
  2337     0986  2988               	goto	u3950
  2338     0987                     u3951:
  2339     0987  2979               	goto	l3255
  2340     0988                     u3950:
  2341     0988                     l3261:
  2342     0988  3001               	movlw	1
  2343     0989                     u3965:
  2344     0989  1003               	clrc
  2345     098A  0DA6               	rlf	___lwdiv@quotient,f
  2346     098B  0DA7               	rlf	___lwdiv@quotient+1,f
  2347     098C  3EFF               	addlw	-1
  2348     098D  1D03               	skipz
  2349     098E  2989               	goto	u3965
  2350     098F  0821               	movf	___lwdiv@divisor+1,w
  2351     0990  0223               	subwf	___lwdiv@dividend+1,w
  2352     0991  1D03               	skipz
  2353     0992  2995               	goto	u3975
  2354     0993  0820               	movf	___lwdiv@divisor,w
  2355     0994  0222               	subwf	___lwdiv@dividend,w
  2356     0995                     u3975:
  2357     0995  1C03               	skipc
  2358     0996  2998               	goto	u3971
  2359     0997  2999               	goto	u3970
  2360     0998                     u3971:
  2361     0998  29A0               	goto	l3267
  2362     0999                     u3970:
  2363     0999                     l3263:
  2364     0999  0820               	movf	___lwdiv@divisor,w
  2365     099A  02A2               	subwf	___lwdiv@dividend,f
  2366     099B  0821               	movf	___lwdiv@divisor+1,w
  2367     099C  1C03               	skipc
  2368     099D  03A3               	decf	___lwdiv@dividend+1,f
  2369     099E  02A3               	subwf	___lwdiv@dividend+1,f
  2370     099F                     l3265:
  2371     099F  1426               	bsf	___lwdiv@quotient,0
  2372     09A0                     l3267:
  2373     09A0  3001               	movlw	1
  2374     09A1                     u3985:
  2375     09A1  1003               	clrc
  2376     09A2  0CA1               	rrf	___lwdiv@divisor+1,f
  2377     09A3  0CA0               	rrf	___lwdiv@divisor,f
  2378     09A4  3EFF               	addlw	-1
  2379     09A5  1D03               	skipz
  2380     09A6  29A1               	goto	u3985
  2381     09A7                     l3269:
  2382     09A7  3001               	movlw	1
  2383     09A8  02A5               	subwf	___lwdiv@counter,f
  2384     09A9  1D03               	btfss	3,2
  2385     09AA  29AC               	goto	u3991
  2386     09AB  29AD               	goto	u3990
  2387     09AC                     u3991:
  2388     09AC  2988               	goto	l3261
  2389     09AD                     u3990:
  2390     09AD                     l3271:
  2391     09AD  0827               	movf	___lwdiv@quotient+1,w
  2392     09AE  00A1               	movwf	?___lwdiv+1
  2393     09AF  0826               	movf	___lwdiv@quotient,w
  2394     09B0  00A0               	movwf	?___lwdiv
  2395     09B1                     l687:
  2396     09B1  0008               	return
  2397     09B2                     __end_of___lwdiv:
  2398                           
  2399                           	psect	text4
  2400     173A                     __ptext4:	
  2401 ;; *************** function _spiWrite *****************
  2402 ;; Defined at:
  2403 ;;		line 33 in file "../PRUEBA.X/SPI.c"
  2404 ;; Parameters:    Size  Location     Type
  2405 ;;  dat             1    wreg     unsigned char 
  2406 ;; Auto vars:     Size  Location     Type
  2407 ;;  dat             1    0[BANK0 ] unsigned char 
  2408 ;; Return value:  Size  Location     Type
  2409 ;;                  1    wreg      void 
  2410 ;; Registers used:
  2411 ;;		wreg
  2412 ;; Tracked objects:
  2413 ;;		On entry : 0/0
  2414 ;;		On exit  : 0/0
  2415 ;;		Unchanged: 0/0
  2416 ;; Data sizes:     COMMON   BANK0   BANK1   BANK3   BANK2
  2417 ;;      Params:         0       0       0       0       0
  2418 ;;      Locals:         0       1       0       0       0
  2419 ;;      Temps:          0       0       0       0       0
  2420 ;;      Totals:         0       1       0       0       0
  2421 ;;Total ram usage:        1 bytes
  2422 ;; Hardware stack levels used: 1
  2423 ;; Hardware stack levels required when called: 2
  2424 ;; This function calls:
  2425 ;;		Nothing
  2426 ;; This function is called by:
  2427 ;;		_main
  2428 ;; This function uses a non-reentrant model
  2429 ;;
  2430                           
  2431     173A                     _spiWrite:	
  2432                           ;psect for function _spiWrite
  2433                           
  2434                           
  2435                           ;incstack = 0
  2436                           ; Regs used in _spiWrite: [wreg]
  2437                           ;spiWrite@dat stored from wreg
  2438     173A  1283               	bcf	3,5	;RP0=0, select bank0
  2439     173B  1303               	bcf	3,6	;RP1=0, select bank0
  2440     173C  00A0               	movwf	spiWrite@dat
  2441     173D                     l3437:
  2442                           
  2443                           ;../PRUEBA.X/SPI.c: 33: void spiWrite(char dat);../PRUEBA.X/SPI.c: 34: {;../PRUEBA.X/SPI
      +                          .c: 35:     SSPBUF = dat;
  2444     173D  0820               	movf	spiWrite@dat,w
  2445     173E  0093               	movwf	19	;volatile
  2446     173F                     l218:
  2447     173F  0008               	return
  2448     1740                     __end_of_spiWrite:
  2449                           
  2450                           	psect	text5
  2451     1747                     __ptext5:	
  2452 ;; *************** function _spiReceiveWait *****************
  2453 ;; Defined at:
  2454 ;;		line 45 in file "tmr0.c"
  2455 ;; Parameters:    Size  Location     Type
  2456 ;;		None
  2457 ;; Auto vars:     Size  Location     Type
  2458 ;;		None
  2459 ;; Return value:  Size  Location     Type
  2460 ;;                  1    wreg      void 
  2461 ;; Registers used:
  2462 ;;		None
  2463 ;; Tracked objects:
  2464 ;;		On entry : 0/0
  2465 ;;		On exit  : 0/0
  2466 ;;		Unchanged: 0/0
  2467 ;; Data sizes:     COMMON   BANK0   BANK1   BANK3   BANK2
  2468 ;;      Params:         0       0       0       0       0
  2469 ;;      Locals:         0       0       0       0       0
  2470 ;;      Temps:          0       0       0       0       0
  2471 ;;      Totals:         0       0       0       0       0
  2472 ;;Total ram usage:        0 bytes
  2473 ;; Hardware stack levels used: 1
  2474 ;; Hardware stack levels required when called: 2
  2475 ;; This function calls:
  2476 ;;		Nothing
  2477 ;; This function is called by:
  2478 ;;		_main
  2479 ;; This function uses a non-reentrant model
  2480 ;;
  2481                           
  2482     1747                     _spiReceiveWait:	
  2483                           ;psect for function _spiReceiveWait
  2484                           
  2485     1747                     l3477:	
  2486                           ;incstack = 0
  2487                           ; Regs used in _spiReceiveWait: []
  2488                           
  2489     1747                     l254:	
  2490                           ;tmr0.c: 46:     while (!SSPSTATbits.BF);
  2491                           
  2492     1747  1683               	bsf	3,5	;RP0=1, select bank1
  2493     1748  1303               	bcf	3,6	;RP1=0, select bank1
  2494     1749  1C14               	btfss	20,0	;volatile
  2495     174A  2F4C               	goto	u4501
  2496     174B  2F4D               	goto	u4500
  2497     174C                     u4501:
  2498     174C  2F47               	goto	l254
  2499     174D                     u4500:
  2500     174D                     l257:
  2501     174D  0008               	return
  2502     174E                     __end_of_spiReceiveWait:
  2503                           
  2504                           	psect	text6
  2505     174E                     __ptext6:	
  2506 ;; *************** function _spiRead *****************
  2507 ;; Defined at:
  2508 ;;		line 46 in file "../PRUEBA.X/SPI.c"
  2509 ;; Parameters:    Size  Location     Type
  2510 ;;		None
  2511 ;; Auto vars:     Size  Location     Type
  2512 ;;		None
  2513 ;; Return value:  Size  Location     Type
  2514 ;;                  1    wreg      unsigned char 
  2515 ;; Registers used:
  2516 ;;		wreg, status,2, status,0, pclath, cstack
  2517 ;; Tracked objects:
  2518 ;;		On entry : 0/0
  2519 ;;		On exit  : 0/0
  2520 ;;		Unchanged: 0/0
  2521 ;; Data sizes:     COMMON   BANK0   BANK1   BANK3   BANK2
  2522 ;;      Params:         0       0       0       0       0
  2523 ;;      Locals:         0       0       0       0       0
  2524 ;;      Temps:          0       0       0       0       0
  2525 ;;      Totals:         0       0       0       0       0
  2526 ;;Total ram usage:        0 bytes
  2527 ;; Hardware stack levels used: 1
  2528 ;; Hardware stack levels required when called: 3
  2529 ;; This function calls:
  2530 ;;		_spiReceiveWait@SPI$F467
  2531 ;; This function is called by:
  2532 ;;		_main
  2533 ;; This function uses a non-reentrant model
  2534 ;;
  2535                           
  2536     174E                     _spiRead:	
  2537                           ;psect for function _spiRead
  2538                           
  2539     174E                     l3479:	
  2540                           ;incstack = 0
  2541                           ; Regs used in _spiRead: [wreg+status,2+status,0+pclath+cstack]
  2542                           
  2543                           
  2544                           ;../PRUEBA.X/SPI.c: 48:     spiReceiveWait();
  2545     174E  160A  118A  2740  160A  118A  	fcall	_spiReceiveWait@SPI$F467
  2546     1753                     l3481:
  2547                           
  2548                           ;../PRUEBA.X/SPI.c: 49:     return(SSPBUF);
  2549     1753  1283               	bcf	3,5	;RP0=0, select bank0
  2550     1754  1303               	bcf	3,6	;RP1=0, select bank0
  2551     1755  0813               	movf	19,w	;volatile
  2552     1756                     l226:
  2553     1756  0008               	return
  2554     1757                     __end_of_spiRead:
  2555                           
  2556                           	psect	text7
  2557     1740                     __ptext7:	
  2558 ;; *************** function _spiReceiveWait@SPI$F467 *****************
  2559 ;; Defined at:
  2560 ;;		line 29 in file "../PRUEBA.X/SPI.c"
  2561 ;; Parameters:    Size  Location     Type
  2562 ;;		None
  2563 ;; Auto vars:     Size  Location     Type
  2564 ;;		None
  2565 ;; Return value:  Size  Location     Type
  2566 ;;                  1    wreg      void 
  2567 ;; Registers used:
  2568 ;;		None
  2569 ;; Tracked objects:
  2570 ;;		On entry : 0/0
  2571 ;;		On exit  : 0/0
  2572 ;;		Unchanged: 0/0
  2573 ;; Data sizes:     COMMON   BANK0   BANK1   BANK3   BANK2
  2574 ;;      Params:         0       0       0       0       0
  2575 ;;      Locals:         0       0       0       0       0
  2576 ;;      Temps:          0       0       0       0       0
  2577 ;;      Totals:         0       0       0       0       0
  2578 ;;Total ram usage:        0 bytes
  2579 ;; Hardware stack levels used: 1
  2580 ;; Hardware stack levels required when called: 2
  2581 ;; This function calls:
  2582 ;;		Nothing
  2583 ;; This function is called by:
  2584 ;;		_spiRead
  2585 ;; This function uses a non-reentrant model
  2586 ;;
  2587                           
  2588     1740                     _spiReceiveWait@SPI$F467:	
  2589                           ;psect for function _spiReceiveWait@SPI$F467
  2590                           
  2591     1740                     l3247:	
  2592                           ;incstack = 0
  2593                           ; Regs used in _spiReceiveWait@SPI$F467: []
  2594                           
  2595     1740                     l212:	
  2596                           ;../PRUEBA.X/SPI.c: 30:     while (!SSPSTATbits.BF);
  2597                           
  2598     1740  1683               	bsf	3,5	;RP0=1, select bank1
  2599     1741  1303               	bcf	3,6	;RP1=0, select bank1
  2600     1742  1C14               	btfss	20,0	;volatile
  2601     1743  2F45               	goto	u3921
  2602     1744  2F46               	goto	u3920
  2603     1745                     u3921:
  2604     1745  2F40               	goto	l212
  2605     1746                     u3920:
  2606     1746                     l215:
  2607     1746  0008               	return
  2608     1747                     __end_of_spiReceiveWait@SPI$F467:
  2609                           
  2610                           	psect	text8
  2611     08E4                     __ptext8:	
  2612 ;; *************** function _setup2 *****************
  2613 ;; Defined at:
  2614 ;;		line 175 in file "main.c"
  2615 ;; Parameters:    Size  Location     Type
  2616 ;;		None
  2617 ;; Auto vars:     Size  Location     Type
  2618 ;;		None
  2619 ;; Return value:  Size  Location     Type
  2620 ;;                  1    wreg      void 
  2621 ;; Registers used:
  2622 ;;		wreg, fsr0l, fsr0h, status,2, status,0, pclath, cstack
  2623 ;; Tracked objects:
  2624 ;;		On entry : 0/0
  2625 ;;		On exit  : 0/0
  2626 ;;		Unchanged: 0/0
  2627 ;; Data sizes:     COMMON   BANK0   BANK1   BANK3   BANK2
  2628 ;;      Params:         0       0       0       0       0
  2629 ;;      Locals:         0       0       0       0       0
  2630 ;;      Temps:          0       0       0       0       0
  2631 ;;      Totals:         0       0       0       0       0
  2632 ;;Total ram usage:        0 bytes
  2633 ;; Hardware stack levels used: 1
  2634 ;; Hardware stack levels required when called: 3
  2635 ;; This function calls:
  2636 ;;		_adc_init
  2637 ;;		_init_osc_MHz
  2638 ;;		_spiInit
  2639 ;; This function is called by:
  2640 ;;		_main
  2641 ;; This function uses a non-reentrant model
  2642 ;;
  2643                           
  2644     08E4                     _setup2:	
  2645                           ;psect for function _setup2
  2646                           
  2647     08E4                     l3551:	
  2648                           ;incstack = 0
  2649                           ; Regs used in _setup2: [wreg-fsr0h+status,2+status,0+pclath+cstack]
  2650                           
  2651                           
  2652                           ;main.c: 176:     ANSELH = 0;
  2653     08E4  1683               	bsf	3,5	;RP0=1, select bank3
  2654     08E5  1703               	bsf	3,6	;RP1=1, select bank3
  2655     08E6  0189               	clrf	9	;volatile
  2656     08E7                     l3553:
  2657                           
  2658                           ;main.c: 177:     ANSEL = 0b00000011;
  2659     08E7  3003               	movlw	3
  2660     08E8  0088               	movwf	8	;volatile
  2661     08E9                     l3555:
  2662                           
  2663                           ;main.c: 178:     TRISA = 0b00100000;
  2664     08E9  3020               	movlw	32
  2665     08EA  1683               	bsf	3,5	;RP0=1, select bank1
  2666     08EB  1303               	bcf	3,6	;RP1=0, select bank1
  2667     08EC  0085               	movwf	5	;volatile
  2668                           
  2669                           ;main.c: 179:     TRISB = 0;
  2670     08ED  0186               	clrf	6	;volatile
  2671                           
  2672                           ;main.c: 180:     PORTB = 0;
  2673     08EE  1283               	bcf	3,5	;RP0=0, select bank0
  2674     08EF  1303               	bcf	3,6	;RP1=0, select bank0
  2675     08F0  0186               	clrf	6	;volatile
  2676                           
  2677                           ;main.c: 181:     TRISD = 0;
  2678     08F1  1683               	bsf	3,5	;RP0=1, select bank1
  2679     08F2  1303               	bcf	3,6	;RP1=0, select bank1
  2680     08F3  0188               	clrf	8	;volatile
  2681                           
  2682                           ;main.c: 182:     PORTD = 0;
  2683     08F4  1283               	bcf	3,5	;RP0=0, select bank0
  2684     08F5  1303               	bcf	3,6	;RP1=0, select bank0
  2685     08F6  0188               	clrf	8	;volatile
  2686     08F7                     l3557:
  2687                           
  2688                           ;main.c: 183:     TRISC = 0b00011001;
  2689     08F7  3019               	movlw	25
  2690     08F8  1683               	bsf	3,5	;RP0=1, select bank1
  2691     08F9  1303               	bcf	3,6	;RP1=0, select bank1
  2692     08FA  0087               	movwf	7	;volatile
  2693     08FB                     l3559:
  2694                           
  2695                           ;main.c: 184:     init_osc_MHz(2);
  2696     08FB  3002               	movlw	2
  2697     08FC  120A  158A  21B2  120A  158A  	fcall	_init_osc_MHz
  2698     0901                     l3561:
  2699                           
  2700                           ;main.c: 185:     adc_init(1,0,0);
  2701     0901  1283               	bcf	3,5	;RP0=0, select bank0
  2702     0902  1303               	bcf	3,6	;RP1=0, select bank0
  2703     0903  01A0               	clrf	adc_init@vref_plus
  2704     0904  01A1               	clrf	adc_init@vref_minus
  2705     0905  3001               	movlw	1
  2706     0906  120A  158A  2249  120A  158A  	fcall	_adc_init
  2707     090B                     l3563:
  2708                           
  2709                           ;main.c: 186:     PIR1bits.ADIF = 0;
  2710     090B  1283               	bcf	3,5	;RP0=0, select bank0
  2711     090C  1303               	bcf	3,6	;RP1=0, select bank0
  2712     090D  130C               	bcf	12,6	;volatile
  2713     090E                     l3565:
  2714                           
  2715                           ;main.c: 187:     PIE1bits.ADIE = 1;
  2716     090E  1683               	bsf	3,5	;RP0=1, select bank1
  2717     090F  1303               	bcf	3,6	;RP1=0, select bank1
  2718     0910  170C               	bsf	12,6	;volatile
  2719     0911                     l3567:
  2720                           
  2721                           ;main.c: 188:     INTCONbits.PEIE = 1;
  2722     0911  170B               	bsf	11,6	;volatile
  2723     0912                     l3569:
  2724                           
  2725                           ;main.c: 189:     INTCONbits.GIE = 1;
  2726     0912  178B               	bsf	11,7	;volatile
  2727     0913                     l3571:
  2728                           
  2729                           ;main.c: 190:     PIR1bits.SSPIF = 0;
  2730     0913  1283               	bcf	3,5	;RP0=0, select bank0
  2731     0914  1303               	bcf	3,6	;RP1=0, select bank0
  2732     0915  118C               	bcf	12,3	;volatile
  2733     0916                     l3573:
  2734                           
  2735                           ;main.c: 191:     PIE1bits.SSPIE = 1;
  2736     0916  1683               	bsf	3,5	;RP0=1, select bank1
  2737     0917  1303               	bcf	3,6	;RP1=0, select bank1
  2738     0918  158C               	bsf	12,3	;volatile
  2739     0919                     l3575:
  2740                           
  2741                           ;main.c: 192:     spiInit(SPI_SLAVE_SS_EN, SPI_DATA_SAMPLE_MIDDLE, SPI_CLOCK_IDLE_LOW, S
      +                          PI_ACTIVE_2_IDLE);
  2742     0919  1283               	bcf	3,5	;RP0=0, select bank0
  2743     091A  1303               	bcf	3,6	;RP1=0, select bank0
  2744     091B  01A0               	clrf	spiInit@sDataSample
  2745     091C  01A1               	clrf	spiInit@sClockIdle
  2746     091D  3040               	movlw	64
  2747     091E  00A2               	movwf	spiInit@sTransmitEdge
  2748     091F  3024               	movlw	36
  2749     0920  160A  118A  2795  120A  158A  	fcall	_spiInit
  2750     0925                     l134:
  2751     0925  0008               	return
  2752     0926                     __end_of_setup2:
  2753                           
  2754                           	psect	text9
  2755     0A49                     __ptext9:	
  2756 ;; *************** function _adc_init *****************
  2757 ;; Defined at:
  2758 ;;		line 9 in file "adc.c"
  2759 ;; Parameters:    Size  Location     Type
  2760 ;;  adc_cs          1    wreg     unsigned char 
  2761 ;;  vref_plus       1    0[BANK0 ] unsigned char 
  2762 ;;  vref_minus      1    1[BANK0 ] unsigned char 
  2763 ;; Auto vars:     Size  Location     Type
  2764 ;;  adc_cs          1    4[BANK0 ] unsigned char 
  2765 ;; Return value:  Size  Location     Type
  2766 ;;                  1    wreg      void 
  2767 ;; Registers used:
  2768 ;;		wreg, fsr0l, fsr0h, status,2, status,0
  2769 ;; Tracked objects:
  2770 ;;		On entry : 0/0
  2771 ;;		On exit  : 0/0
  2772 ;;		Unchanged: 0/0
  2773 ;; Data sizes:     COMMON   BANK0   BANK1   BANK3   BANK2
  2774 ;;      Params:         0       2       0       0       0
  2775 ;;      Locals:         0       1       0       0       0
  2776 ;;      Temps:          0       2       0       0       0
  2777 ;;      Totals:         0       5       0       0       0
  2778 ;;Total ram usage:        5 bytes
  2779 ;; Hardware stack levels used: 1
  2780 ;; Hardware stack levels required when called: 2
  2781 ;; This function calls:
  2782 ;;		Nothing
  2783 ;; This function is called by:
  2784 ;;		_setup2
  2785 ;; This function uses a non-reentrant model
  2786 ;;
  2787                           
  2788     0A49                     _adc_init:	
  2789                           ;psect for function _adc_init
  2790                           
  2791                           
  2792                           ;incstack = 0
  2793                           ; Regs used in _adc_init: [wreg-fsr0h+status,2+status,0]
  2794                           ;adc_init@adc_cs stored from wreg
  2795     0A49  1283               	bcf	3,5	;RP0=0, select bank0
  2796     0A4A  1303               	bcf	3,6	;RP1=0, select bank0
  2797     0A4B  00A4               	movwf	adc_init@adc_cs
  2798     0A4C                     l3197:
  2799                           
  2800                           ;adc.c: 11:     switch(adc_cs){
  2801     0A4C  2A5D               	goto	l3209
  2802     0A4D                     l3199:
  2803                           
  2804                           ;adc.c: 13:             ADCON0bits.ADCS = 0b00;
  2805     0A4D  303F               	movlw	-193
  2806     0A4E  059F               	andwf	31,f	;volatile
  2807                           
  2808                           ;adc.c: 14:             break;
  2809     0A4F  2A73               	goto	l3211
  2810     0A50                     l3201:
  2811                           
  2812                           ;adc.c: 16:             ADCON0bits.ADCS = 0b01;
  2813     0A50  081F               	movf	31,w	;volatile
  2814     0A51  393F               	andlw	-193
  2815     0A52  3840               	iorlw	64
  2816     0A53  009F               	movwf	31	;volatile
  2817                           
  2818                           ;adc.c: 17:             break;
  2819     0A54  2A73               	goto	l3211
  2820     0A55                     l3203:
  2821                           
  2822                           ;adc.c: 19:             ADCON0bits.ADCS = 0b10;
  2823     0A55  081F               	movf	31,w	;volatile
  2824     0A56  393F               	andlw	-193
  2825     0A57  3880               	iorlw	128
  2826     0A58  009F               	movwf	31	;volatile
  2827                           
  2828                           ;adc.c: 20:             break;
  2829     0A59  2A73               	goto	l3211
  2830     0A5A                     l3205:
  2831                           
  2832                           ;adc.c: 22:             ADCON0bits.ADCS = 0b11;
  2833     0A5A  30C0               	movlw	192
  2834     0A5B  049F               	iorwf	31,f	;volatile
  2835                           
  2836                           ;adc.c: 23:             break;
  2837     0A5C  2A73               	goto	l3211
  2838     0A5D                     l3209:
  2839     0A5D  0824               	movf	adc_init@adc_cs,w
  2840     0A5E  00A2               	movwf	??_adc_init
  2841     0A5F  01A3               	clrf	??_adc_init+1
  2842                           
  2843                           ; Switch on 2 bytes has been partitioned into a top level switch of size 1, and 1 sub-sw
      +                          itches
  2844                           ; Switch size 1, requested type "simple"
  2845                           ; Number of cases is 1, Range of values is 0 to 0
  2846                           ; switch strategies available:
  2847                           ; Name         Instructions Cycles
  2848                           ; simple_byte            4     3 (average)
  2849                           ; direct_byte           11     8 (fixed)
  2850                           ; jumptable            260     6 (fixed)
  2851                           ;	Chosen strategy is simple_byte
  2852     0A60  0823               	movf	??_adc_init+1,w
  2853     0A61  3A00               	xorlw	0	; case 0
  2854     0A62  1903               	skipnz
  2855     0A63  2A65               	goto	l3753
  2856     0A64  2A73               	goto	l3211
  2857     0A65                     l3753:
  2858                           
  2859                           ; Switch size 1, requested type "simple"
  2860                           ; Number of cases is 4, Range of values is 0 to 3
  2861                           ; switch strategies available:
  2862                           ; Name         Instructions Cycles
  2863                           ; simple_byte           13     7 (average)
  2864                           ; direct_byte           20     8 (fixed)
  2865                           ; jumptable            260     6 (fixed)
  2866                           ;	Chosen strategy is simple_byte
  2867     0A65  0822               	movf	??_adc_init,w
  2868     0A66  3A00               	xorlw	0	; case 0
  2869     0A67  1903               	skipnz
  2870     0A68  2A4D               	goto	l3199
  2871     0A69  3A01               	xorlw	1	; case 1
  2872     0A6A  1903               	skipnz
  2873     0A6B  2A50               	goto	l3201
  2874     0A6C  3A03               	xorlw	3	; case 2
  2875     0A6D  1903               	skipnz
  2876     0A6E  2A55               	goto	l3203
  2877     0A6F  3A01               	xorlw	1	; case 3
  2878     0A70  1903               	skipnz
  2879     0A71  2A5A               	goto	l3205
  2880     0A72  2A73               	goto	l3211
  2881     0A73                     l3211:
  2882                           
  2883                           ;adc.c: 27:     ADCON1bits.VCFG0 = vref_plus;
  2884     0A73  0C20               	rrf	adc_init@vref_plus,w
  2885     0A74  1683               	bsf	3,5	;RP0=1, select bank1
  2886     0A75  1303               	bcf	3,6	;RP1=0, select bank1
  2887     0A76  1C03               	skipc
  2888     0A77  121F               	bcf	31,4	;volatile
  2889     0A78  1803               	skipnc
  2890     0A79  161F               	bsf	31,4	;volatile
  2891                           
  2892                           ;adc.c: 28:     ADCON1bits.VCFG1 = vref_minus;
  2893     0A7A  1283               	bcf	3,5	;RP0=0, select bank0
  2894     0A7B  1303               	bcf	3,6	;RP1=0, select bank0
  2895     0A7C  0C21               	rrf	adc_init@vref_minus,w
  2896     0A7D  1683               	bsf	3,5	;RP0=1, select bank1
  2897     0A7E  1303               	bcf	3,6	;RP1=0, select bank1
  2898     0A7F  1C03               	skipc
  2899     0A80  129F               	bcf	31,5	;volatile
  2900     0A81  1803               	skipnc
  2901     0A82  169F               	bsf	31,5	;volatile
  2902     0A83                     l3213:
  2903                           
  2904                           ;adc.c: 29:     ADCON0bits.CHS = 0b0000;
  2905     0A83  30C3               	movlw	-61
  2906     0A84  1283               	bcf	3,5	;RP0=0, select bank0
  2907     0A85  1303               	bcf	3,6	;RP1=0, select bank0
  2908     0A86  059F               	andwf	31,f	;volatile
  2909     0A87                     l3215:
  2910                           
  2911                           ;adc.c: 30:     ADCON1bits.ADFM = 0;
  2912     0A87  1683               	bsf	3,5	;RP0=1, select bank1
  2913     0A88  1303               	bcf	3,6	;RP1=0, select bank1
  2914     0A89  139F               	bcf	31,7	;volatile
  2915     0A8A                     l3217:
  2916                           
  2917                           ;adc.c: 31:     ADCON0bits.ADON = 1;
  2918     0A8A  1283               	bcf	3,5	;RP0=0, select bank0
  2919     0A8B  1303               	bcf	3,6	;RP1=0, select bank0
  2920     0A8C  141F               	bsf	31,0	;volatile
  2921     0A8D                     l3219:
  2922                           
  2923                           ;adc.c: 32:     _delay((unsigned long)((40)*(4000000/4000000.0)));
  2924     0A8D  300C               	movlw	12
  2925     0A8E  1283               	bcf	3,5	;RP0=0, select bank0
  2926     0A8F  1303               	bcf	3,6	;RP1=0, select bank0
  2927     0A90  00A2               	movwf	??_adc_init
  2928     0A91                     u4717:
  2929     0A91  0BA2               	decfsz	??_adc_init,f
  2930     0A92  2A91               	goto	u4717
  2931     0A93  0000               	nop
  2932     0A94                     l290:
  2933     0A94  0008               	return
  2934     0A95                     __end_of_adc_init:
  2935                           
  2936                           	psect	text10
  2937     083F                     __ptext10:	
  2938 ;; *************** function _setup *****************
  2939 ;; Defined at:
  2940 ;;		line 159 in file "main.c"
  2941 ;; Parameters:    Size  Location     Type
  2942 ;;		None
  2943 ;; Auto vars:     Size  Location     Type
  2944 ;;		None
  2945 ;; Return value:  Size  Location     Type
  2946 ;;                  1    wreg      void 
  2947 ;; Registers used:
  2948 ;;		wreg, fsr0l, fsr0h, status,2, status,0, pclath, cstack
  2949 ;; Tracked objects:
  2950 ;;		On entry : 0/0
  2951 ;;		On exit  : 0/0
  2952 ;;		Unchanged: 0/0
  2953 ;; Data sizes:     COMMON   BANK0   BANK1   BANK3   BANK2
  2954 ;;      Params:         0       0       0       0       0
  2955 ;;      Locals:         0       0       0       0       0
  2956 ;;      Temps:          0       0       0       0       0
  2957 ;;      Totals:         0       0       0       0       0
  2958 ;;Total ram usage:        0 bytes
  2959 ;; Hardware stack levels used: 1
  2960 ;; Hardware stack levels required when called: 5
  2961 ;; This function calls:
  2962 ;;		_Lcd_Init
  2963 ;;		_init_osc_MHz
  2964 ;;		_spiInit
  2965 ;; This function is called by:
  2966 ;;		_main
  2967 ;; This function uses a non-reentrant model
  2968 ;;
  2969                           
  2970     083F                     _setup:	
  2971                           ;psect for function _setup
  2972                           
  2973     083F                     l3439:	
  2974                           ;incstack = 0
  2975                           ; Regs used in _setup: [wreg-fsr0h+status,2+status,0+pclath+cstack]
  2976                           
  2977                           
  2978                           ;main.c: 160:     ANSEL = 0;
  2979     083F  1683               	bsf	3,5	;RP0=1, select bank3
  2980     0840  1703               	bsf	3,6	;RP1=1, select bank3
  2981     0841  0188               	clrf	8	;volatile
  2982                           
  2983                           ;main.c: 161:     TRISA = 0;
  2984     0842  1683               	bsf	3,5	;RP0=1, select bank1
  2985     0843  1303               	bcf	3,6	;RP1=0, select bank1
  2986     0844  0185               	clrf	5	;volatile
  2987                           
  2988                           ;main.c: 162:     PORTA = 0;
  2989     0845  1283               	bcf	3,5	;RP0=0, select bank0
  2990     0846  1303               	bcf	3,6	;RP1=0, select bank0
  2991     0847  0185               	clrf	5	;volatile
  2992                           
  2993                           ;main.c: 163:     TRISB = 0;
  2994     0848  1683               	bsf	3,5	;RP0=1, select bank1
  2995     0849  1303               	bcf	3,6	;RP1=0, select bank1
  2996     084A  0186               	clrf	6	;volatile
  2997                           
  2998                           ;main.c: 164:     PORTB = 0;
  2999     084B  1283               	bcf	3,5	;RP0=0, select bank0
  3000     084C  1303               	bcf	3,6	;RP1=0, select bank0
  3001     084D  0186               	clrf	6	;volatile
  3002                           
  3003                           ;main.c: 165:     TRISD = 0;
  3004     084E  1683               	bsf	3,5	;RP0=1, select bank1
  3005     084F  1303               	bcf	3,6	;RP1=0, select bank1
  3006     0850  0188               	clrf	8	;volatile
  3007                           
  3008                           ;main.c: 166:     PORTD = 0;
  3009     0851  1283               	bcf	3,5	;RP0=0, select bank0
  3010     0852  1303               	bcf	3,6	;RP1=0, select bank0
  3011     0853  0188               	clrf	8	;volatile
  3012     0854                     l3441:
  3013                           
  3014                           ;main.c: 168:     TRISC = 0b00010001;
  3015     0854  3011               	movlw	17
  3016     0855  1683               	bsf	3,5	;RP0=1, select bank1
  3017     0856  1303               	bcf	3,6	;RP1=0, select bank1
  3018     0857  0087               	movwf	7	;volatile
  3019     0858                     l3443:
  3020                           
  3021                           ;main.c: 169:     init_osc_MHz(2);
  3022     0858  3002               	movlw	2
  3023     0859  120A  158A  21B2  120A  158A  	fcall	_init_osc_MHz
  3024     085E                     l3445:
  3025                           
  3026                           ;main.c: 170:     spiInit(SPI_MASTER_OSC_DIV4, SPI_DATA_SAMPLE_MIDDLE, SPI_CLOCK_IDLE_LO
      +                          W, SPI_IDLE_2_ACTIVE);
  3027     085E  1283               	bcf	3,5	;RP0=0, select bank0
  3028     085F  1303               	bcf	3,6	;RP1=0, select bank0
  3029     0860  01A0               	clrf	spiInit@sDataSample
  3030     0861  01A1               	clrf	spiInit@sClockIdle
  3031     0862  01A2               	clrf	spiInit@sTransmitEdge
  3032     0863  3020               	movlw	32
  3033     0864  160A  118A  2795  120A  158A  	fcall	_spiInit
  3034     0869                     l3447:
  3035                           
  3036                           ;main.c: 171:     Lcd_Init();
  3037     0869  120A  158A  22E5  120A  158A  	fcall	_Lcd_Init
  3038     086E                     l131:
  3039     086E  0008               	return
  3040     086F                     __end_of_setup:
  3041                           
  3042                           	psect	text11
  3043     1795                     __ptext11:	
  3044 ;; *************** function _spiInit *****************
  3045 ;; Defined at:
  3046 ;;		line 12 in file "../PRUEBA.X/SPI.c"
  3047 ;; Parameters:    Size  Location     Type
  3048 ;;  sType           1    wreg     enum E1292
  3049 ;;  sDataSample     1    0[BANK0 ] enum E1300
  3050 ;;  sClockIdle      1    1[BANK0 ] enum E1304
  3051 ;;  sTransmitEdg    1    2[BANK0 ] enum E1308
  3052 ;; Auto vars:     Size  Location     Type
  3053 ;;  sType           1    3[BANK0 ] enum E1292
  3054 ;; Return value:  Size  Location     Type
  3055 ;;                  1    wreg      void 
  3056 ;; Registers used:
  3057 ;;		wreg, status,2, status,0
  3058 ;; Tracked objects:
  3059 ;;		On entry : 0/0
  3060 ;;		On exit  : 0/0
  3061 ;;		Unchanged: 0/0
  3062 ;; Data sizes:     COMMON   BANK0   BANK1   BANK3   BANK2
  3063 ;;      Params:         0       3       0       0       0
  3064 ;;      Locals:         0       1       0       0       0
  3065 ;;      Temps:          0       0       0       0       0
  3066 ;;      Totals:         0       4       0       0       0
  3067 ;;Total ram usage:        4 bytes
  3068 ;; Hardware stack levels used: 1
  3069 ;; Hardware stack levels required when called: 2
  3070 ;; This function calls:
  3071 ;;		Nothing
  3072 ;; This function is called by:
  3073 ;;		_setup
  3074 ;;		_setup2
  3075 ;; This function uses a non-reentrant model
  3076 ;;
  3077                           
  3078     1795                     _spiInit:	
  3079                           ;psect for function _spiInit
  3080                           
  3081                           
  3082                           ;incstack = 0
  3083                           ; Regs used in _spiInit: [wreg+status,2+status,0]
  3084                           ;spiInit@sType stored from wreg
  3085     1795  1283               	bcf	3,5	;RP0=0, select bank0
  3086     1796  1303               	bcf	3,6	;RP1=0, select bank0
  3087     1797  00A3               	movwf	spiInit@sType
  3088     1798                     l3177:
  3089                           
  3090                           ;../PRUEBA.X/SPI.c: 12: void spiInit(Spi_Type sType, Spi_Data_Sample sDataSample, Spi_Cl
      +                          ock_Idle sClockIdle, Spi_Transmit_Edge sTransmitEdge);../PRUEBA.X/SPI.c: 13: {;../PRUEBA
      +                          .X/SPI.c: 14:     TRISC5 = 0;
  3091     1798  1683               	bsf	3,5	;RP0=1, select bank1
  3092     1799  1303               	bcf	3,6	;RP1=0, select bank1
  3093     179A  1287               	bcf	7,5	;volatile
  3094                           
  3095                           ;../PRUEBA.X/SPI.c: 15:     if(sType & 0b00000100)
  3096     179B  1283               	bcf	3,5	;RP0=0, select bank0
  3097     179C  1303               	bcf	3,6	;RP1=0, select bank0
  3098     179D  1D23               	btfss	spiInit@sType,2
  3099     179E  2FA0               	goto	u3901
  3100     179F  2FA1               	goto	u3900
  3101     17A0                     u3901:
  3102     17A0  2FA7               	goto	l3183
  3103     17A1                     u3900:
  3104     17A1                     l3179:
  3105                           
  3106                           ;../PRUEBA.X/SPI.c: 16:     {;../PRUEBA.X/SPI.c: 17:         SSPSTAT = sTransmitEdge;
  3107     17A1  0822               	movf	spiInit@sTransmitEdge,w
  3108     17A2  1683               	bsf	3,5	;RP0=1, select bank1
  3109     17A3  1303               	bcf	3,6	;RP1=0, select bank1
  3110     17A4  0094               	movwf	20	;volatile
  3111     17A5                     l3181:
  3112                           
  3113                           ;../PRUEBA.X/SPI.c: 18:         TRISC3 = 1;
  3114     17A5  1587               	bsf	7,3	;volatile
  3115                           
  3116                           ;../PRUEBA.X/SPI.c: 19:     }
  3117     17A6  2FAD               	goto	l208
  3118     17A7                     l3183:
  3119                           
  3120                           ;../PRUEBA.X/SPI.c: 21:     {;../PRUEBA.X/SPI.c: 22:         SSPSTAT = sDataSample | sTr
      +                          ansmitEdge;
  3121     17A7  0820               	movf	spiInit@sDataSample,w
  3122     17A8  0422               	iorwf	spiInit@sTransmitEdge,w
  3123     17A9  1683               	bsf	3,5	;RP0=1, select bank1
  3124     17AA  1303               	bcf	3,6	;RP1=0, select bank1
  3125     17AB  0094               	movwf	20	;volatile
  3126     17AC                     l3185:
  3127                           
  3128                           ;../PRUEBA.X/SPI.c: 23:         TRISC3 = 0;
  3129     17AC  1187               	bcf	7,3	;volatile
  3130     17AD                     l208:	
  3131                           ;../PRUEBA.X/SPI.c: 24:     }
  3132                           
  3133                           
  3134                           ;../PRUEBA.X/SPI.c: 26:     SSPCON = sType | sClockIdle;
  3135     17AD  1283               	bcf	3,5	;RP0=0, select bank0
  3136     17AE  1303               	bcf	3,6	;RP1=0, select bank0
  3137     17AF  0823               	movf	spiInit@sType,w
  3138     17B0  0421               	iorwf	spiInit@sClockIdle,w
  3139     17B1  0094               	movwf	20	;volatile
  3140     17B2                     l209:
  3141     17B2  0008               	return
  3142     17B3                     __end_of_spiInit:
  3143                           
  3144                           	psect	text12
  3145     09B2                     __ptext12:	
  3146 ;; *************** function _init_osc_MHz *****************
  3147 ;; Defined at:
  3148 ;;		line 5 in file "oscilador.c"
  3149 ;; Parameters:    Size  Location     Type
  3150 ;;  freq            1    wreg     unsigned char 
  3151 ;; Auto vars:     Size  Location     Type
  3152 ;;  freq            1    2[BANK0 ] unsigned char 
  3153 ;; Return value:  Size  Location     Type
  3154 ;;                  1    wreg      void 
  3155 ;; Registers used:
  3156 ;;		wreg, fsr0l, fsr0h, status,2, status,0
  3157 ;; Tracked objects:
  3158 ;;		On entry : 0/0
  3159 ;;		On exit  : 0/0
  3160 ;;		Unchanged: 0/0
  3161 ;; Data sizes:     COMMON   BANK0   BANK1   BANK3   BANK2
  3162 ;;      Params:         0       0       0       0       0
  3163 ;;      Locals:         0       1       0       0       0
  3164 ;;      Temps:          0       2       0       0       0
  3165 ;;      Totals:         0       3       0       0       0
  3166 ;;Total ram usage:        3 bytes
  3167 ;; Hardware stack levels used: 1
  3168 ;; Hardware stack levels required when called: 2
  3169 ;; This function calls:
  3170 ;;		Nothing
  3171 ;; This function is called by:
  3172 ;;		_setup
  3173 ;;		_setup2
  3174 ;; This function uses a non-reentrant model
  3175 ;;
  3176                           
  3177     09B2                     _init_osc_MHz:	
  3178                           ;psect for function _init_osc_MHz
  3179                           
  3180                           
  3181                           ;incstack = 0
  3182                           ; Regs used in _init_osc_MHz: [wreg-fsr0h+status,2+status,0]
  3183                           ;init_osc_MHz@freq stored from wreg
  3184     09B2  1283               	bcf	3,5	;RP0=0, select bank0
  3185     09B3  1303               	bcf	3,6	;RP1=0, select bank0
  3186     09B4  00A2               	movwf	init_osc_MHz@freq
  3187     09B5                     l3155:
  3188                           
  3189                           ;oscilador.c: 6:     OSCCONbits.SCS = 1;
  3190     09B5  1683               	bsf	3,5	;RP0=1, select bank1
  3191     09B6  1303               	bcf	3,6	;RP1=0, select bank1
  3192     09B7  140F               	bsf	15,0	;volatile
  3193                           
  3194                           ;oscilador.c: 7:     switch(freq){
  3195     09B8  29E1               	goto	l3171
  3196     09B9                     l3157:
  3197                           
  3198                           ;oscilador.c: 9:             OSCCONbits.IRCF = 0b100;
  3199     09B9  1683               	bsf	3,5	;RP0=1, select bank1
  3200     09BA  1303               	bcf	3,6	;RP1=0, select bank1
  3201     09BB  080F               	movf	15,w	;volatile
  3202     09BC  398F               	andlw	-113
  3203     09BD  3840               	iorlw	64
  3204     09BE  008F               	movwf	15	;volatile
  3205                           
  3206                           ;oscilador.c: 10:             break;
  3207     09BF  29FC               	goto	l270
  3208     09C0                     l3159:
  3209                           
  3210                           ;oscilador.c: 12:             OSCCONbits.IRCF = 0b101;
  3211     09C0  1683               	bsf	3,5	;RP0=1, select bank1
  3212     09C1  1303               	bcf	3,6	;RP1=0, select bank1
  3213     09C2  080F               	movf	15,w	;volatile
  3214     09C3  398F               	andlw	-113
  3215     09C4  3850               	iorlw	80
  3216     09C5  008F               	movwf	15	;volatile
  3217                           
  3218                           ;oscilador.c: 13:             break;
  3219     09C6  29FC               	goto	l270
  3220     09C7                     l3161:
  3221                           
  3222                           ;oscilador.c: 15:             OSCCONbits.IRCF = 0b110;
  3223     09C7  1683               	bsf	3,5	;RP0=1, select bank1
  3224     09C8  1303               	bcf	3,6	;RP1=0, select bank1
  3225     09C9  080F               	movf	15,w	;volatile
  3226     09CA  398F               	andlw	-113
  3227     09CB  3860               	iorlw	96
  3228     09CC  008F               	movwf	15	;volatile
  3229                           
  3230                           ;oscilador.c: 16:             break;
  3231     09CD  29FC               	goto	l270
  3232     09CE                     l3163:
  3233                           
  3234                           ;oscilador.c: 18:             OSCCONbits.IRCF = 0b111;
  3235     09CE  3070               	movlw	112
  3236     09CF  1683               	bsf	3,5	;RP0=1, select bank1
  3237     09D0  1303               	bcf	3,6	;RP1=0, select bank1
  3238     09D1  048F               	iorwf	15,f	;volatile
  3239                           
  3240                           ;oscilador.c: 19:             break;
  3241     09D2  29FC               	goto	l270
  3242     09D3                     l3165:
  3243                           
  3244                           ;oscilador.c: 21:             OSCCONbits.IRCF = 0b011;
  3245     09D3  1683               	bsf	3,5	;RP0=1, select bank1
  3246     09D4  1303               	bcf	3,6	;RP1=0, select bank1
  3247     09D5  080F               	movf	15,w	;volatile
  3248     09D6  398F               	andlw	-113
  3249     09D7  3830               	iorlw	48
  3250     09D8  008F               	movwf	15	;volatile
  3251                           
  3252                           ;oscilador.c: 22:             break;
  3253     09D9  29FC               	goto	l270
  3254     09DA                     l3167:
  3255                           
  3256                           ;oscilador.c: 24:             OSCCONbits.IRCF = 0b110;
  3257     09DA  1683               	bsf	3,5	;RP0=1, select bank1
  3258     09DB  1303               	bcf	3,6	;RP1=0, select bank1
  3259     09DC  080F               	movf	15,w	;volatile
  3260     09DD  398F               	andlw	-113
  3261     09DE  3860               	iorlw	96
  3262     09DF  008F               	movwf	15	;volatile
  3263                           
  3264                           ;oscilador.c: 25:             break;
  3265     09E0  29FC               	goto	l270
  3266     09E1                     l3171:
  3267     09E1  1283               	bcf	3,5	;RP0=0, select bank0
  3268     09E2  1303               	bcf	3,6	;RP1=0, select bank0
  3269     09E3  0822               	movf	init_osc_MHz@freq,w
  3270     09E4  00A0               	movwf	??_init_osc_MHz
  3271     09E5  01A1               	clrf	??_init_osc_MHz+1
  3272                           
  3273                           ; Switch on 2 bytes has been partitioned into a top level switch of size 1, and 1 sub-sw
      +                          itches
  3274                           ; Switch size 1, requested type "simple"
  3275                           ; Number of cases is 1, Range of values is 0 to 0
  3276                           ; switch strategies available:
  3277                           ; Name         Instructions Cycles
  3278                           ; simple_byte            4     3 (average)
  3279                           ; direct_byte           11     8 (fixed)
  3280                           ; jumptable            260     6 (fixed)
  3281                           ;	Chosen strategy is simple_byte
  3282     09E6  0821               	movf	??_init_osc_MHz+1,w
  3283     09E7  3A00               	xorlw	0	; case 0
  3284     09E8  1903               	skipnz
  3285     09E9  29EB               	goto	l3755
  3286     09EA  29DA               	goto	l3167
  3287     09EB                     l3755:
  3288                           
  3289                           ; Switch size 1, requested type "simple"
  3290                           ; Number of cases is 5, Range of values is 0 to 4
  3291                           ; switch strategies available:
  3292                           ; Name         Instructions Cycles
  3293                           ; simple_byte           16     9 (average)
  3294                           ; direct_byte           23     8 (fixed)
  3295                           ; jumptable            260     6 (fixed)
  3296                           ;	Chosen strategy is simple_byte
  3297     09EB  0820               	movf	??_init_osc_MHz,w
  3298     09EC  3A00               	xorlw	0	; case 0
  3299     09ED  1903               	skipnz
  3300     09EE  29B9               	goto	l3157
  3301     09EF  3A01               	xorlw	1	; case 1
  3302     09F0  1903               	skipnz
  3303     09F1  29C0               	goto	l3159
  3304     09F2  3A03               	xorlw	3	; case 2
  3305     09F3  1903               	skipnz
  3306     09F4  29C7               	goto	l3161
  3307     09F5  3A01               	xorlw	1	; case 3
  3308     09F6  1903               	skipnz
  3309     09F7  29CE               	goto	l3163
  3310     09F8  3A07               	xorlw	7	; case 4
  3311     09F9  1903               	skipnz
  3312     09FA  29D3               	goto	l3165
  3313     09FB  29DA               	goto	l3167
  3314     09FC                     l270:
  3315     09FC  0008               	return
  3316     09FD                     __end_of_init_osc_MHz:
  3317                           
  3318                           	psect	text13
  3319     0AE5                     __ptext13:	
  3320 ;; *************** function _Lcd_Init *****************
  3321 ;; Defined at:
  3322 ;;		line 68 in file "../PRUEBA.X/LCD.c"
  3323 ;; Parameters:    Size  Location     Type
  3324 ;;		None
  3325 ;; Auto vars:     Size  Location     Type
  3326 ;;		None
  3327 ;; Return value:  Size  Location     Type
  3328 ;;                  1    wreg      void 
  3329 ;; Registers used:
  3330 ;;		wreg, status,2, status,0, pclath, cstack
  3331 ;; Tracked objects:
  3332 ;;		On entry : 0/0
  3333 ;;		On exit  : 0/0
  3334 ;;		Unchanged: 0/0
  3335 ;; Data sizes:     COMMON   BANK0   BANK1   BANK3   BANK2
  3336 ;;      Params:         0       0       0       0       0
  3337 ;;      Locals:         0       0       0       0       0
  3338 ;;      Temps:          0       2       0       0       0
  3339 ;;      Totals:         0       2       0       0       0
  3340 ;;Total ram usage:        2 bytes
  3341 ;; Hardware stack levels used: 1
  3342 ;; Hardware stack levels required when called: 4
  3343 ;; This function calls:
  3344 ;;		_Lcd_Cmd
  3345 ;;		_Lcd_Port
  3346 ;; This function is called by:
  3347 ;;		_setup
  3348 ;; This function uses a non-reentrant model
  3349 ;;
  3350                           
  3351     0AE5                     _Lcd_Init:	
  3352                           ;psect for function _Lcd_Init
  3353                           
  3354     0AE5                     l3187:	
  3355                           ;incstack = 0
  3356                           ; Regs used in _Lcd_Init: [wreg+status,2+status,0+pclath+cstack]
  3357                           
  3358                           
  3359                           ;../PRUEBA.X/LCD.c: 69:     Lcd_Port(0x00);
  3360     0AE5  3000               	movlw	0
  3361     0AE6  120A  118A  27DE  120A  158A  	fcall	_Lcd_Port
  3362     0AEB                     l3189:
  3363                           
  3364                           ;../PRUEBA.X/LCD.c: 70:     _delay((unsigned long)((20)*(8000000/4000.0)));
  3365     0AEB  3034               	movlw	52
  3366     0AEC  1283               	bcf	3,5	;RP0=0, select bank0
  3367     0AED  1303               	bcf	3,6	;RP1=0, select bank0
  3368     0AEE  00A5               	movwf	??_Lcd_Init+1
  3369     0AEF  30F1               	movlw	241
  3370     0AF0  00A4               	movwf	??_Lcd_Init
  3371     0AF1                     u4727:
  3372     0AF1  0BA4               	decfsz	??_Lcd_Init,f
  3373     0AF2  2AF1               	goto	u4727
  3374     0AF3  0BA5               	decfsz	??_Lcd_Init+1,f
  3375     0AF4  2AF1               	goto	u4727
  3376     0AF5                     l3191:
  3377                           
  3378                           ;../PRUEBA.X/LCD.c: 71:     Lcd_Cmd(0x03);
  3379     0AF5  3003               	movlw	3
  3380     0AF6  160A  118A  2779  120A  158A  	fcall	_Lcd_Cmd
  3381                           
  3382                           ;../PRUEBA.X/LCD.c: 72:     _delay((unsigned long)((5)*(8000000/4000.0)));
  3383     0AFB  300D               	movlw	13
  3384     0AFC  1283               	bcf	3,5	;RP0=0, select bank0
  3385     0AFD  1303               	bcf	3,6	;RP1=0, select bank0
  3386     0AFE  00A5               	movwf	??_Lcd_Init+1
  3387     0AFF  30FB               	movlw	251
  3388     0B00  00A4               	movwf	??_Lcd_Init
  3389     0B01                     u4737:
  3390     0B01  0BA4               	decfsz	??_Lcd_Init,f
  3391     0B02  2B01               	goto	u4737
  3392     0B03  0BA5               	decfsz	??_Lcd_Init+1,f
  3393     0B04  2B01               	goto	u4737
  3394     0B05                     l3193:
  3395                           
  3396                           ;../PRUEBA.X/LCD.c: 73:     Lcd_Cmd(0x03);
  3397     0B05  3003               	movlw	3
  3398     0B06  160A  118A  2779  120A  158A  	fcall	_Lcd_Cmd
  3399     0B0B                     l3195:
  3400                           
  3401                           ;../PRUEBA.X/LCD.c: 74:     _delay((unsigned long)((11)*(8000000/4000000.0)));
  3402     0B0B  3006               	movlw	6
  3403     0B0C  1283               	bcf	3,5	;RP0=0, select bank0
  3404     0B0D  1303               	bcf	3,6	;RP1=0, select bank0
  3405     0B0E  00A4               	movwf	??_Lcd_Init
  3406     0B0F                     u4747:
  3407     0B0F  0BA4               	decfsz	??_Lcd_Init,f
  3408     0B10  2B0F               	goto	u4747
  3409     0B11  0000               	nop
  3410                           
  3411                           ;../PRUEBA.X/LCD.c: 75:     Lcd_Cmd(0x03);
  3412     0B12  3003               	movlw	3
  3413     0B13  160A  118A  2779  120A  158A  	fcall	_Lcd_Cmd
  3414                           
  3415                           ;../PRUEBA.X/LCD.c: 77:     Lcd_Cmd(0x02);
  3416     0B18  3002               	movlw	2
  3417     0B19  160A  118A  2779  120A  158A  	fcall	_Lcd_Cmd
  3418                           
  3419                           ;../PRUEBA.X/LCD.c: 78:     Lcd_Cmd(0x02);
  3420     0B1E  3002               	movlw	2
  3421     0B1F  160A  118A  2779  120A  158A  	fcall	_Lcd_Cmd
  3422                           
  3423                           ;../PRUEBA.X/LCD.c: 79:     Lcd_Cmd(0x08);
  3424     0B24  3008               	movlw	8
  3425     0B25  160A  118A  2779  120A  158A  	fcall	_Lcd_Cmd
  3426                           
  3427                           ;../PRUEBA.X/LCD.c: 80:     Lcd_Cmd(0x00);
  3428     0B2A  3000               	movlw	0
  3429     0B2B  160A  118A  2779  120A  158A  	fcall	_Lcd_Cmd
  3430                           
  3431                           ;../PRUEBA.X/LCD.c: 81:     Lcd_Cmd(0x0C);
  3432     0B30  300C               	movlw	12
  3433     0B31  160A  118A  2779  120A  158A  	fcall	_Lcd_Cmd
  3434                           
  3435                           ;../PRUEBA.X/LCD.c: 82:     Lcd_Cmd(0x00);
  3436     0B36  3000               	movlw	0
  3437     0B37  160A  118A  2779  120A  158A  	fcall	_Lcd_Cmd
  3438                           
  3439                           ;../PRUEBA.X/LCD.c: 83:     Lcd_Cmd(0x06);
  3440     0B3C  3006               	movlw	6
  3441     0B3D  160A  118A  2779  120A  158A  	fcall	_Lcd_Cmd
  3442     0B42                     l177:
  3443     0B42  0008               	return
  3444     0B43                     __end_of_Lcd_Init:
  3445                           
  3446                           	psect	text14
  3447     0C8B                     __ptext14:	
  3448 ;; *************** function _map *****************
  3449 ;; Defined at:
  3450 ;;		line 196 in file "main.c"
  3451 ;; Parameters:    Size  Location     Type
  3452 ;;  x               1    wreg     unsigned char 
  3453 ;;  x0              1   16[BANK1 ] unsigned char 
  3454 ;;  x1              1   17[BANK1 ] unsigned char 
  3455 ;;  y0              2   18[BANK1 ] unsigned short 
  3456 ;;  y1              2   20[BANK1 ] unsigned short 
  3457 ;; Auto vars:     Size  Location     Type
  3458 ;;  x               1   22[BANK1 ] unsigned char 
  3459 ;; Return value:  Size  Location     Type
  3460 ;;                  2   16[BANK1 ] unsigned short 
  3461 ;; Registers used:
  3462 ;;		wreg, status,2, status,0, btemp+1, pclath, cstack
  3463 ;; Tracked objects:
  3464 ;;		On entry : 0/0
  3465 ;;		On exit  : 0/0
  3466 ;;		Unchanged: 0/0
  3467 ;; Data sizes:     COMMON   BANK0   BANK1   BANK3   BANK2
  3468 ;;      Params:         0       0       6       0       0
  3469 ;;      Locals:         0       0       1       0       0
  3470 ;;      Temps:          0       0       0       0       0
  3471 ;;      Totals:         0       0       7       0       0
  3472 ;;Total ram usage:        7 bytes
  3473 ;; Hardware stack levels used: 1
  3474 ;; Hardware stack levels required when called: 4
  3475 ;; This function calls:
  3476 ;;		___fladd
  3477 ;;		___fldiv
  3478 ;;		___flmul
  3479 ;;		___fltol
  3480 ;;		___xxtofl
  3481 ;; This function is called by:
  3482 ;;		_main
  3483 ;; This function uses a non-reentrant model
  3484 ;;
  3485                           
  3486     0C8B                     _map:	
  3487                           ;psect for function _map
  3488                           
  3489                           
  3490                           ;incstack = 0
  3491                           ; Regs used in _map: [wreg+status,2+status,0+btemp+1+pclath+cstack]
  3492                           ;map@x stored from wreg
  3493     0C8B  1683               	bsf	3,5	;RP0=1, select bank1
  3494     0C8C  1303               	bcf	3,6	;RP1=0, select bank1
  3495     0C8D  00B6               	movwf	map@x^(0+128)
  3496     0C8E                     l3485:
  3497                           
  3498                           ;main.c: 196: unsigned short map(uint8_t x, uint8_t x0, uint8_t x1,;main.c: 197:        
      +                               unsigned short y0, unsigned short y1){;main.c: 198:     return (unsigned short)(y0+
      +                          ((float)(y1-y0)/(x1-x0))*(x-x0));
  3499     0C8E  0832               	movf	map@y0^(0+128),w
  3500     0C8F  1283               	bcf	3,5	;RP0=0, select bank0
  3501     0C90  1303               	bcf	3,6	;RP1=0, select bank0
  3502     0C91  00A0               	movwf	___xxtofl@val
  3503     0C92  1683               	bsf	3,5	;RP0=1, select bank1
  3504     0C93  1303               	bcf	3,6	;RP1=0, select bank1
  3505     0C94  0833               	movf	(map@y0+1)^(0+128),w
  3506     0C95  1283               	bcf	3,5	;RP0=0, select bank0
  3507     0C96  1303               	bcf	3,6	;RP1=0, select bank0
  3508     0C97  00A1               	movwf	___xxtofl@val+1
  3509     0C98  01A2               	clrf	___xxtofl@val+2
  3510     0C99  01A3               	clrf	___xxtofl@val+3
  3511     0C9A  3000               	movlw	0
  3512     0C9B  120A  158A  23D1  120A  158A  	fcall	___xxtofl
  3513     0CA0  1283               	bcf	3,5	;RP0=0, select bank0
  3514     0CA1  1303               	bcf	3,6	;RP1=0, select bank0
  3515     0CA2  0823               	movf	?___xxtofl+3,w
  3516     0CA3  00E9               	movwf	___fladd@a+3
  3517     0CA4  0822               	movf	?___xxtofl+2,w
  3518     0CA5  00E8               	movwf	___fladd@a+2
  3519     0CA6  0821               	movf	?___xxtofl+1,w
  3520     0CA7  00E7               	movwf	___fladd@a+1
  3521     0CA8  0820               	movf	?___xxtofl,w
  3522     0CA9  00E6               	movwf	___fladd@a
  3523     0CAA  1683               	bsf	3,5	;RP0=1, select bank1
  3524     0CAB  1303               	bcf	3,6	;RP1=0, select bank1
  3525     0CAC  0832               	movf	map@y0^(0+128),w
  3526     0CAD  0234               	subwf	map@y1^(0+128),w
  3527     0CAE  1283               	bcf	3,5	;RP0=0, select bank0
  3528     0CAF  1303               	bcf	3,6	;RP1=0, select bank0
  3529     0CB0  00A0               	movwf	___xxtofl@val
  3530     0CB1  1683               	bsf	3,5	;RP0=1, select bank1
  3531     0CB2  1303               	bcf	3,6	;RP1=0, select bank1
  3532     0CB3  0833               	movf	(map@y0+1)^(0+128),w
  3533     0CB4  1C03               	skipc
  3534     0CB5  0A33               	incf	(map@y0+1)^(0+128),w
  3535     0CB6  0235               	subwf	(map@y1+1)^(0+128),w
  3536     0CB7  1283               	bcf	3,5	;RP0=0, select bank0
  3537     0CB8  1303               	bcf	3,6	;RP1=0, select bank0
  3538     0CB9  00A1               	movwf	___xxtofl@val+1
  3539     0CBA  01A2               	clrf	___xxtofl@val+2
  3540     0CBB  01A3               	clrf	___xxtofl@val+3
  3541     0CBC  3000               	movlw	0
  3542     0CBD  120A  158A  23D1  120A  158A  	fcall	___xxtofl
  3543     0CC2  1283               	bcf	3,5	;RP0=0, select bank0
  3544     0CC3  1303               	bcf	3,6	;RP1=0, select bank0
  3545     0CC4  0823               	movf	?___xxtofl+3,w
  3546     0CC5  00B5               	movwf	___fldiv@b+3
  3547     0CC6  0822               	movf	?___xxtofl+2,w
  3548     0CC7  00B4               	movwf	___fldiv@b+2
  3549     0CC8  0821               	movf	?___xxtofl+1,w
  3550     0CC9  00B3               	movwf	___fldiv@b+1
  3551     0CCA  0820               	movf	?___xxtofl,w
  3552     0CCB  00B2               	movwf	___fldiv@b
  3553     0CCC  1683               	bsf	3,5	;RP0=1, select bank1
  3554     0CCD  1303               	bcf	3,6	;RP1=0, select bank1
  3555     0CCE  0830               	movf	map@x0^(0+128),w
  3556     0CCF  0231               	subwf	map@x1^(0+128),w
  3557     0CD0  1283               	bcf	3,5	;RP0=0, select bank0
  3558     0CD1  1303               	bcf	3,6	;RP1=0, select bank0
  3559     0CD2  00A0               	movwf	___xxtofl@val
  3560     0CD3  01A1               	clrf	___xxtofl@val+1
  3561     0CD4  1C03               	skipc
  3562     0CD5  03A1               	decf	___xxtofl@val+1,f
  3563     0CD6  01A2               	clrf	___xxtofl@val+2
  3564     0CD7  1BA1               	btfsc	___xxtofl@val+1,7
  3565     0CD8  03A2               	decf	___xxtofl@val+2,f
  3566     0CD9  0822               	movf	___xxtofl@val+2,w
  3567     0CDA  00A3               	movwf	___xxtofl@val+3
  3568     0CDB  3001               	movlw	1
  3569     0CDC  120A  158A  23D1  120A  158A  	fcall	___xxtofl
  3570     0CE1  1283               	bcf	3,5	;RP0=0, select bank0
  3571     0CE2  1303               	bcf	3,6	;RP1=0, select bank0
  3572     0CE3  0823               	movf	?___xxtofl+3,w
  3573     0CE4  00B1               	movwf	___fldiv@a+3
  3574     0CE5  0822               	movf	?___xxtofl+2,w
  3575     0CE6  00B0               	movwf	___fldiv@a+2
  3576     0CE7  0821               	movf	?___xxtofl+1,w
  3577     0CE8  00AF               	movwf	___fldiv@a+1
  3578     0CE9  0820               	movf	?___xxtofl,w
  3579     0CEA  00AE               	movwf	___fldiv@a
  3580     0CEB  120A  158A  262D  120A  158A  	fcall	___fldiv
  3581     0CF0  1283               	bcf	3,5	;RP0=0, select bank0
  3582     0CF1  1303               	bcf	3,6	;RP1=0, select bank0
  3583     0CF2  0831               	movf	?___fldiv+3,w
  3584     0CF3  00CF               	movwf	___flmul@a+3
  3585     0CF4  0830               	movf	?___fldiv+2,w
  3586     0CF5  00CE               	movwf	___flmul@a+2
  3587     0CF6  082F               	movf	?___fldiv+1,w
  3588     0CF7  00CD               	movwf	___flmul@a+1
  3589     0CF8  082E               	movf	?___fldiv,w
  3590     0CF9  00CC               	movwf	___flmul@a
  3591     0CFA  1683               	bsf	3,5	;RP0=1, select bank1
  3592     0CFB  1303               	bcf	3,6	;RP1=0, select bank1
  3593     0CFC  0830               	movf	map@x0^(0+128),w
  3594     0CFD  0236               	subwf	map@x^(0+128),w
  3595     0CFE  1283               	bcf	3,5	;RP0=0, select bank0
  3596     0CFF  1303               	bcf	3,6	;RP1=0, select bank0
  3597     0D00  00A0               	movwf	___xxtofl@val
  3598     0D01  01A1               	clrf	___xxtofl@val+1
  3599     0D02  1C03               	skipc
  3600     0D03  03A1               	decf	___xxtofl@val+1,f
  3601     0D04  01A2               	clrf	___xxtofl@val+2
  3602     0D05  1BA1               	btfsc	___xxtofl@val+1,7
  3603     0D06  03A2               	decf	___xxtofl@val+2,f
  3604     0D07  0822               	movf	___xxtofl@val+2,w
  3605     0D08  00A3               	movwf	___xxtofl@val+3
  3606     0D09  3001               	movlw	1
  3607     0D0A  120A  158A  23D1  120A  158A  	fcall	___xxtofl
  3608     0D0F  1283               	bcf	3,5	;RP0=0, select bank0
  3609     0D10  1303               	bcf	3,6	;RP1=0, select bank0
  3610     0D11  0823               	movf	?___xxtofl+3,w
  3611     0D12  00CB               	movwf	___flmul@b+3
  3612     0D13  0822               	movf	?___xxtofl+2,w
  3613     0D14  00CA               	movwf	___flmul@b+2
  3614     0D15  0821               	movf	?___xxtofl+1,w
  3615     0D16  00C9               	movwf	___flmul@b+1
  3616     0D17  0820               	movf	?___xxtofl,w
  3617     0D18  00C8               	movwf	___flmul@b
  3618     0D19  120A  118A  2029  120A  158A  	fcall	___flmul
  3619     0D1E  1283               	bcf	3,5	;RP0=0, select bank0
  3620     0D1F  1303               	bcf	3,6	;RP1=0, select bank0
  3621     0D20  084B               	movf	?___flmul+3,w
  3622     0D21  00E5               	movwf	___fladd@b+3
  3623     0D22  084A               	movf	?___flmul+2,w
  3624     0D23  00E4               	movwf	___fladd@b+2
  3625     0D24  0849               	movf	?___flmul+1,w
  3626     0D25  00E3               	movwf	___fladd@b+1
  3627     0D26  0848               	movf	?___flmul,w
  3628     0D27  00E2               	movwf	___fladd@b
  3629     0D28  120A  118A  236E  120A  158A  	fcall	___fladd
  3630     0D2D  1283               	bcf	3,5	;RP0=0, select bank0
  3631     0D2E  1303               	bcf	3,6	;RP1=0, select bank0
  3632     0D2F  0865               	movf	?___fladd+3,w
  3633     0D30  1683               	bsf	3,5	;RP0=1, select bank1
  3634     0D31  1303               	bcf	3,6	;RP1=0, select bank1
  3635     0D32  00AB               	movwf	(___fltol@f1+3)^(0+128)
  3636     0D33  1283               	bcf	3,5	;RP0=0, select bank0
  3637     0D34  1303               	bcf	3,6	;RP1=0, select bank0
  3638     0D35  0864               	movf	?___fladd+2,w
  3639     0D36  1683               	bsf	3,5	;RP0=1, select bank1
  3640     0D37  1303               	bcf	3,6	;RP1=0, select bank1
  3641     0D38  00AA               	movwf	(___fltol@f1+2)^(0+128)
  3642     0D39  1283               	bcf	3,5	;RP0=0, select bank0
  3643     0D3A  1303               	bcf	3,6	;RP1=0, select bank0
  3644     0D3B  0863               	movf	?___fladd+1,w
  3645     0D3C  1683               	bsf	3,5	;RP0=1, select bank1
  3646     0D3D  1303               	bcf	3,6	;RP1=0, select bank1
  3647     0D3E  00A9               	movwf	(___fltol@f1+1)^(0+128)
  3648     0D3F  1283               	bcf	3,5	;RP0=0, select bank0
  3649     0D40  1303               	bcf	3,6	;RP1=0, select bank0
  3650     0D41  0862               	movf	?___fladd,w
  3651     0D42  1683               	bsf	3,5	;RP0=1, select bank1
  3652     0D43  1303               	bcf	3,6	;RP1=0, select bank1
  3653     0D44  00A8               	movwf	___fltol@f1^(0+128)
  3654     0D45  120A  158A  2343  120A  158A  	fcall	___fltol
  3655     0D4A  1683               	bsf	3,5	;RP0=1, select bank1
  3656     0D4B  1303               	bcf	3,6	;RP1=0, select bank1
  3657     0D4C  0829               	movf	(?___fltol+1)^(0+128),w
  3658     0D4D  00B1               	movwf	(?_map+1)^(0+128)
  3659     0D4E  0828               	movf	?___fltol^(0+128),w
  3660     0D4F  00B0               	movwf	?_map^(0+128)
  3661     0D50                     l137:
  3662     0D50  0008               	return
  3663     0D51                     __end_of_map:
  3664                           
  3665                           	psect	text15
  3666     0BD1                     __ptext15:	
  3667 ;; *************** function ___xxtofl *****************
  3668 ;; Defined at:
  3669 ;;		line 10 in file "C:\Program Files\Microchip\xc8\v2.40\pic\sources\c90\common\xxtofl.c"
  3670 ;; Parameters:    Size  Location     Type
  3671 ;;  sign            1    wreg     unsigned char 
  3672 ;;  val             4    0[BANK0 ] long 
  3673 ;; Auto vars:     Size  Location     Type
  3674 ;;  sign            1    8[BANK0 ] unsigned char 
  3675 ;;  arg             4   10[BANK0 ] unsigned long 
  3676 ;;  exp             1    9[BANK0 ] unsigned char 
  3677 ;; Return value:  Size  Location     Type
  3678 ;;                  4    0[BANK0 ] unsigned char 
  3679 ;; Registers used:
  3680 ;;		wreg, status,2, status,0
  3681 ;; Tracked objects:
  3682 ;;		On entry : 0/0
  3683 ;;		On exit  : 0/0
  3684 ;;		Unchanged: 0/0
  3685 ;; Data sizes:     COMMON   BANK0   BANK1   BANK3   BANK2
  3686 ;;      Params:         0       4       0       0       0
  3687 ;;      Locals:         0       6       0       0       0
  3688 ;;      Temps:          0       4       0       0       0
  3689 ;;      Totals:         0      14       0       0       0
  3690 ;;Total ram usage:       14 bytes
  3691 ;; Hardware stack levels used: 1
  3692 ;; Hardware stack levels required when called: 2
  3693 ;; This function calls:
  3694 ;;		Nothing
  3695 ;; This function is called by:
  3696 ;;		_map
  3697 ;; This function uses a non-reentrant model
  3698 ;;
  3699                           
  3700     0BD1                     ___xxtofl:	
  3701                           ;psect for function ___xxtofl
  3702                           
  3703                           
  3704                           ;incstack = 0
  3705                           ; Regs used in ___xxtofl: [wreg+status,2+status,0]
  3706                           ;___xxtofl@sign stored from wreg
  3707     0BD1  1283               	bcf	3,5	;RP0=0, select bank0
  3708     0BD2  1303               	bcf	3,6	;RP1=0, select bank0
  3709     0BD3  00A8               	movwf	___xxtofl@sign
  3710     0BD4                     l2725:
  3711     0BD4  0828               	movf	___xxtofl@sign,w
  3712     0BD5  1903               	btfsc	3,2
  3713     0BD6  2BD8               	goto	u3371
  3714     0BD7  2BD9               	goto	u3370
  3715     0BD8                     u3371:
  3716     0BD8  2BED               	goto	l2731
  3717     0BD9                     u3370:
  3718     0BD9                     l2727:
  3719     0BD9  1FA3               	btfss	___xxtofl@val+3,7
  3720     0BDA  2BDC               	goto	u3381
  3721     0BDB  2BDD               	goto	u3380
  3722     0BDC                     u3381:
  3723     0BDC  2BED               	goto	l2731
  3724     0BDD                     u3380:
  3725     0BDD                     l2729:
  3726     0BDD  0920               	comf	___xxtofl@val,w
  3727     0BDE  00AA               	movwf	___xxtofl@arg
  3728     0BDF  0921               	comf	___xxtofl@val+1,w
  3729     0BE0  00AB               	movwf	___xxtofl@arg+1
  3730     0BE1  0922               	comf	___xxtofl@val+2,w
  3731     0BE2  00AC               	movwf	___xxtofl@arg+2
  3732     0BE3  0923               	comf	___xxtofl@val+3,w
  3733     0BE4  00AD               	movwf	___xxtofl@arg+3
  3734     0BE5  0AAA               	incf	___xxtofl@arg,f
  3735     0BE6  1903               	skipnz
  3736     0BE7  0AAB               	incf	___xxtofl@arg+1,f
  3737     0BE8  1903               	skipnz
  3738     0BE9  0AAC               	incf	___xxtofl@arg+2,f
  3739     0BEA  1903               	skipnz
  3740     0BEB  0AAD               	incf	___xxtofl@arg+3,f
  3741     0BEC  2BF5               	goto	l848
  3742     0BED                     l2731:
  3743     0BED  0823               	movf	___xxtofl@val+3,w
  3744     0BEE  00AD               	movwf	___xxtofl@arg+3
  3745     0BEF  0822               	movf	___xxtofl@val+2,w
  3746     0BF0  00AC               	movwf	___xxtofl@arg+2
  3747     0BF1  0821               	movf	___xxtofl@val+1,w
  3748     0BF2  00AB               	movwf	___xxtofl@arg+1
  3749     0BF3  0820               	movf	___xxtofl@val,w
  3750     0BF4  00AA               	movwf	___xxtofl@arg
  3751     0BF5                     l848:
  3752     0BF5  0823               	movf	___xxtofl@val+3,w
  3753     0BF6  0422               	iorwf	___xxtofl@val+2,w
  3754     0BF7  0421               	iorwf	___xxtofl@val+1,w
  3755     0BF8  0420               	iorwf	___xxtofl@val,w
  3756     0BF9  1D03               	skipz
  3757     0BFA  2BFC               	goto	u3391
  3758     0BFB  2BFD               	goto	u3390
  3759     0BFC                     u3391:
  3760     0BFC  2C06               	goto	l2737
  3761     0BFD                     u3390:
  3762     0BFD                     l2733:
  3763     0BFD  3000               	movlw	0
  3764     0BFE  00A3               	movwf	?___xxtofl+3
  3765     0BFF  3000               	movlw	0
  3766     0C00  00A2               	movwf	?___xxtofl+2
  3767     0C01  3000               	movlw	0
  3768     0C02  00A1               	movwf	?___xxtofl+1
  3769     0C03  3000               	movlw	0
  3770     0C04  00A0               	movwf	?___xxtofl
  3771     0C05  2C8A               	goto	l850
  3772     0C06                     l2737:
  3773     0C06  3096               	movlw	150
  3774     0C07  00A9               	movwf	___xxtofl@exp
  3775     0C08  2C16               	goto	l2741
  3776     0C09                     l2739:
  3777     0C09  3001               	movlw	1
  3778     0C0A  00A4               	movwf	??___xxtofl
  3779     0C0B  0824               	movf	??___xxtofl,w
  3780     0C0C  07A9               	addwf	___xxtofl@exp,f
  3781     0C0D  3001               	movlw	1
  3782     0C0E                     u3405:
  3783     0C0E  1003               	clrc
  3784     0C0F  0CAD               	rrf	___xxtofl@arg+3,f
  3785     0C10  0CAC               	rrf	___xxtofl@arg+2,f
  3786     0C11  0CAB               	rrf	___xxtofl@arg+1,f
  3787     0C12  0CAA               	rrf	___xxtofl@arg,f
  3788     0C13  3EFF               	addlw	-1
  3789     0C14  1D03               	skipz
  3790     0C15  2C0E               	goto	u3405
  3791     0C16                     l2741:
  3792     0C16  30FE               	movlw	254
  3793     0C17  052D               	andwf	___xxtofl@arg+3,w
  3794     0C18  1D03               	btfss	3,2
  3795     0C19  2C1B               	goto	u3411
  3796     0C1A  2C1C               	goto	u3410
  3797     0C1B                     u3411:
  3798     0C1B  2C09               	goto	l2739
  3799     0C1C                     u3410:
  3800     0C1C  2C38               	goto	l854
  3801     0C1D                     l2743:
  3802     0C1D  3001               	movlw	1
  3803     0C1E  00A4               	movwf	??___xxtofl
  3804     0C1F  0824               	movf	??___xxtofl,w
  3805     0C20  07A9               	addwf	___xxtofl@exp,f
  3806     0C21                     l2745:
  3807     0C21  3001               	movlw	1
  3808     0C22  07AA               	addwf	___xxtofl@arg,f
  3809     0C23  3000               	movlw	0
  3810     0C24  1803               	skipnc
  3811     0C25  3001               	movlw	1
  3812     0C26  07AB               	addwf	___xxtofl@arg+1,f
  3813     0C27  3000               	movlw	0
  3814     0C28  1803               	skipnc
  3815     0C29  3001               	movlw	1
  3816     0C2A  07AC               	addwf	___xxtofl@arg+2,f
  3817     0C2B  3000               	movlw	0
  3818     0C2C  1803               	skipnc
  3819     0C2D  3001               	movlw	1
  3820     0C2E  07AD               	addwf	___xxtofl@arg+3,f
  3821     0C2F                     l2747:
  3822     0C2F  3001               	movlw	1
  3823     0C30                     u3425:
  3824     0C30  1003               	clrc
  3825     0C31  0CAD               	rrf	___xxtofl@arg+3,f
  3826     0C32  0CAC               	rrf	___xxtofl@arg+2,f
  3827     0C33  0CAB               	rrf	___xxtofl@arg+1,f
  3828     0C34  0CAA               	rrf	___xxtofl@arg,f
  3829     0C35  3EFF               	addlw	-1
  3830     0C36  1D03               	skipz
  3831     0C37  2C30               	goto	u3425
  3832     0C38                     l854:
  3833     0C38  30FF               	movlw	255
  3834     0C39  052D               	andwf	___xxtofl@arg+3,w
  3835     0C3A  1D03               	btfss	3,2
  3836     0C3B  2C3D               	goto	u3431
  3837     0C3C  2C3E               	goto	u3430
  3838     0C3D                     u3431:
  3839     0C3D  2C1D               	goto	l2743
  3840     0C3E                     u3430:
  3841     0C3E  2C4A               	goto	l2751
  3842     0C3F                     l2749:
  3843     0C3F  3001               	movlw	1
  3844     0C40  02A9               	subwf	___xxtofl@exp,f
  3845     0C41  3001               	movlw	1
  3846     0C42  00A4               	movwf	??___xxtofl
  3847     0C43                     u3445:
  3848     0C43  1003               	clrc
  3849     0C44  0DAA               	rlf	___xxtofl@arg,f
  3850     0C45  0DAB               	rlf	___xxtofl@arg+1,f
  3851     0C46  0DAC               	rlf	___xxtofl@arg+2,f
  3852     0C47  0DAD               	rlf	___xxtofl@arg+3,f
  3853     0C48  0BA4               	decfsz	??___xxtofl,f
  3854     0C49  2C43               	goto	u3445
  3855     0C4A                     l2751:
  3856     0C4A  1BAC               	btfsc	___xxtofl@arg+2,7
  3857     0C4B  2C4D               	goto	u3451
  3858     0C4C  2C4E               	goto	u3450
  3859     0C4D                     u3451:
  3860     0C4D  2C54               	goto	l861
  3861     0C4E                     u3450:
  3862     0C4E                     l2753:
  3863     0C4E  3002               	movlw	2
  3864     0C4F  0229               	subwf	___xxtofl@exp,w
  3865     0C50  1803               	skipnc
  3866     0C51  2C53               	goto	u3461
  3867     0C52  2C54               	goto	u3460
  3868     0C53                     u3461:
  3869     0C53  2C3F               	goto	l2749
  3870     0C54                     u3460:
  3871     0C54                     l861:
  3872     0C54  1829               	btfsc	___xxtofl@exp,0
  3873     0C55  2C57               	goto	u3471
  3874     0C56  2C58               	goto	u3470
  3875     0C57                     u3471:
  3876     0C57  2C60               	goto	l862
  3877     0C58                     u3470:
  3878     0C58                     l2755:
  3879     0C58  30FF               	movlw	255
  3880     0C59  05AA               	andwf	___xxtofl@arg,f
  3881     0C5A  30FF               	movlw	255
  3882     0C5B  05AB               	andwf	___xxtofl@arg+1,f
  3883     0C5C  307F               	movlw	127
  3884     0C5D  05AC               	andwf	___xxtofl@arg+2,f
  3885     0C5E  30FF               	movlw	255
  3886     0C5F  05AD               	andwf	___xxtofl@arg+3,f
  3887     0C60                     l862:
  3888     0C60  1003               	clrc
  3889     0C61  0CA9               	rrf	___xxtofl@exp,f
  3890     0C62                     l2757:
  3891     0C62  0829               	movf	___xxtofl@exp,w
  3892     0C63  00A4               	movwf	??___xxtofl
  3893     0C64  01A5               	clrf	??___xxtofl+1
  3894     0C65  01A6               	clrf	??___xxtofl+2
  3895     0C66  01A7               	clrf	??___xxtofl+3
  3896     0C67  3018               	movlw	24
  3897     0C68                     u3485:
  3898     0C68  1003               	clrc
  3899     0C69  0DA4               	rlf	??___xxtofl,f
  3900     0C6A  0DA5               	rlf	??___xxtofl+1,f
  3901     0C6B  0DA6               	rlf	??___xxtofl+2,f
  3902     0C6C  0DA7               	rlf	??___xxtofl+3,f
  3903     0C6D                     u3480:
  3904     0C6D  3EFF               	addlw	-1
  3905     0C6E  1D03               	skipz
  3906     0C6F  2C68               	goto	u3485
  3907     0C70  0824               	movf	??___xxtofl,w
  3908     0C71  04AA               	iorwf	___xxtofl@arg,f
  3909     0C72  0825               	movf	??___xxtofl+1,w
  3910     0C73  04AB               	iorwf	___xxtofl@arg+1,f
  3911     0C74  0826               	movf	??___xxtofl+2,w
  3912     0C75  04AC               	iorwf	___xxtofl@arg+2,f
  3913     0C76  0827               	movf	??___xxtofl+3,w
  3914     0C77  04AD               	iorwf	___xxtofl@arg+3,f
  3915     0C78                     l2759:
  3916     0C78  0828               	movf	___xxtofl@sign,w
  3917     0C79  1903               	btfsc	3,2
  3918     0C7A  2C7C               	goto	u3491
  3919     0C7B  2C7D               	goto	u3490
  3920     0C7C                     u3491:
  3921     0C7C  2C82               	goto	l2765
  3922     0C7D                     u3490:
  3923     0C7D                     l2761:
  3924     0C7D  1FA3               	btfss	___xxtofl@val+3,7
  3925     0C7E  2C80               	goto	u3501
  3926     0C7F  2C81               	goto	u3500
  3927     0C80                     u3501:
  3928     0C80  2C82               	goto	l2765
  3929     0C81                     u3500:
  3930     0C81                     l2763:
  3931     0C81  17AD               	bsf	___xxtofl@arg+3,7
  3932     0C82                     l2765:
  3933     0C82  082D               	movf	___xxtofl@arg+3,w
  3934     0C83  00A3               	movwf	?___xxtofl+3
  3935     0C84  082C               	movf	___xxtofl@arg+2,w
  3936     0C85  00A2               	movwf	?___xxtofl+2
  3937     0C86  082B               	movf	___xxtofl@arg+1,w
  3938     0C87  00A1               	movwf	?___xxtofl+1
  3939     0C88  082A               	movf	___xxtofl@arg,w
  3940     0C89  00A0               	movwf	?___xxtofl
  3941     0C8A                     l850:
  3942     0C8A  0008               	return
  3943     0C8B                     __end_of___xxtofl:
  3944                           
  3945                           	psect	text16
  3946     0B43                     __ptext16:	
  3947 ;; *************** function ___fltol *****************
  3948 ;; Defined at:
  3949 ;;		line 43 in file "C:\Program Files\Microchip\xc8\v2.40\pic\sources\c90\common\fltol.c"
  3950 ;; Parameters:    Size  Location     Type
  3951 ;;  f1              4    8[BANK1 ] unsigned char 
  3952 ;; Auto vars:     Size  Location     Type
  3953 ;;  exp1            1   79[BANK0 ] unsigned char 
  3954 ;;  sign1           1   78[BANK0 ] unsigned char 
  3955 ;; Return value:  Size  Location     Type
  3956 ;;                  4    8[BANK1 ] long 
  3957 ;; Registers used:
  3958 ;;		wreg, status,2, status,0
  3959 ;; Tracked objects:
  3960 ;;		On entry : 0/0
  3961 ;;		On exit  : 0/0
  3962 ;;		Unchanged: 0/0
  3963 ;; Data sizes:     COMMON   BANK0   BANK1   BANK3   BANK2
  3964 ;;      Params:         0       0       4       0       0
  3965 ;;      Locals:         0       2       0       0       0
  3966 ;;      Temps:          0       0       4       0       0
  3967 ;;      Totals:         0       2       8       0       0
  3968 ;;Total ram usage:       10 bytes
  3969 ;; Hardware stack levels used: 1
  3970 ;; Hardware stack levels required when called: 2
  3971 ;; This function calls:
  3972 ;;		Nothing
  3973 ;; This function is called by:
  3974 ;;		_map
  3975 ;; This function uses a non-reentrant model
  3976 ;;
  3977                           
  3978     0B43                     ___fltol:	
  3979                           ;psect for function ___fltol
  3980                           
  3981     0B43                     l2165:	
  3982                           ;incstack = 0
  3983                           ; Regs used in ___fltol: [wreg+status,2+status,0]
  3984                           
  3985     0B43  1003               	clrc
  3986     0B44  1683               	bsf	3,5	;RP0=1, select bank1
  3987     0B45  1303               	bcf	3,6	;RP1=0, select bank1
  3988     0B46  0D2A               	rlf	(___fltol@f1+2)^(0+128),w
  3989     0B47  0D2B               	rlf	(___fltol@f1+3)^(0+128),w
  3990     0B48  1283               	bcf	3,5	;RP0=0, select bank0
  3991     0B49  1303               	bcf	3,6	;RP1=0, select bank0
  3992     0B4A  00EF               	movwf	___fltol@exp1
  3993     0B4B  086F               	movf	___fltol@exp1,w
  3994     0B4C  1D03               	btfss	3,2
  3995     0B4D  2B4F               	goto	u2021
  3996     0B4E  2B50               	goto	u2020
  3997     0B4F                     u2021:
  3998     0B4F  2B5B               	goto	l2171
  3999     0B50                     u2020:
  4000     0B50                     l2167:
  4001     0B50  3000               	movlw	0
  4002     0B51  1683               	bsf	3,5	;RP0=1, select bank1
  4003     0B52  1303               	bcf	3,6	;RP1=0, select bank1
  4004     0B53  00AB               	movwf	(?___fltol+3)^(0+128)
  4005     0B54  3000               	movlw	0
  4006     0B55  00AA               	movwf	(?___fltol+2)^(0+128)
  4007     0B56  3000               	movlw	0
  4008     0B57  00A9               	movwf	(?___fltol+1)^(0+128)
  4009     0B58  3000               	movlw	0
  4010     0B59  00A8               	movwf	?___fltol^(0+128)
  4011     0B5A  2BD0               	goto	l601
  4012     0B5B                     l2171:
  4013     0B5B  1683               	bsf	3,5	;RP0=1, select bank1
  4014     0B5C  1303               	bcf	3,6	;RP1=0, select bank1
  4015     0B5D  0828               	movf	___fltol@f1^(0+128),w
  4016     0B5E  00AC               	movwf	??___fltol^(0+128)
  4017     0B5F  0829               	movf	(___fltol@f1+1)^(0+128),w
  4018     0B60  00AD               	movwf	(??___fltol^(0+128)+1)
  4019     0B61  082A               	movf	(___fltol@f1+2)^(0+128),w
  4020     0B62  00AE               	movwf	(??___fltol^(0+128)+2)
  4021     0B63  082B               	movf	(___fltol@f1+3)^(0+128),w
  4022     0B64  00AF               	movwf	(??___fltol^(0+128)+3)
  4023     0B65  301F               	movlw	31
  4024     0B66                     u2035:
  4025     0B66  1003               	clrc
  4026     0B67  0CAF               	rrf	(??___fltol^(0+128)+3),f
  4027     0B68  0CAE               	rrf	(??___fltol^(0+128)+2),f
  4028     0B69  0CAD               	rrf	(??___fltol^(0+128)+1),f
  4029     0B6A  0CAC               	rrf	??___fltol^(0+128),f
  4030     0B6B                     u2030:
  4031     0B6B  3EFF               	addlw	-1
  4032     0B6C  1D03               	skipz
  4033     0B6D  2B66               	goto	u2035
  4034     0B6E  082C               	movf	??___fltol^(0+128),w
  4035     0B6F  1283               	bcf	3,5	;RP0=0, select bank0
  4036     0B70  1303               	bcf	3,6	;RP1=0, select bank0
  4037     0B71  00EE               	movwf	___fltol@sign1
  4038     0B72                     l2173:
  4039     0B72  1683               	bsf	3,5	;RP0=1, select bank1
  4040     0B73  1303               	bcf	3,6	;RP1=0, select bank1
  4041     0B74  17AA               	bsf	(___fltol@f1^(0+128)+2),7
  4042     0B75                     l2175:
  4043     0B75  30FF               	movlw	255
  4044     0B76  05A8               	andwf	___fltol@f1^(0+128),f
  4045     0B77  30FF               	movlw	255
  4046     0B78  05A9               	andwf	(___fltol@f1+1)^(0+128),f
  4047     0B79  30FF               	movlw	255
  4048     0B7A  05AA               	andwf	(___fltol@f1+2)^(0+128),f
  4049     0B7B  3000               	movlw	0
  4050     0B7C  05AB               	andwf	(___fltol@f1+3)^(0+128),f
  4051     0B7D                     l2177:
  4052     0B7D  3096               	movlw	150
  4053     0B7E  1283               	bcf	3,5	;RP0=0, select bank0
  4054     0B7F  1303               	bcf	3,6	;RP1=0, select bank0
  4055     0B80  02EF               	subwf	___fltol@exp1,f
  4056     0B81                     l2179:
  4057     0B81  1FEF               	btfss	___fltol@exp1,7
  4058     0B82  2B84               	goto	u2041
  4059     0B83  2B85               	goto	u2040
  4060     0B84                     u2041:
  4061     0B84  2BA3               	goto	l2189
  4062     0B85                     u2040:
  4063     0B85                     l2181:
  4064     0B85  086F               	movf	___fltol@exp1,w
  4065     0B86  3A80               	xorlw	128
  4066     0B87  3E97               	addlw	151
  4067     0B88  1803               	skipnc
  4068     0B89  2B8B               	goto	u2051
  4069     0B8A  2B8C               	goto	u2050
  4070     0B8B                     u2051:
  4071     0B8B  2B8D               	goto	l2187
  4072     0B8C                     u2050:
  4073     0B8C  2B50               	goto	l2167
  4074     0B8D                     l2187:
  4075     0B8D  3001               	movlw	1
  4076     0B8E                     u2065:
  4077     0B8E  1003               	clrc
  4078     0B8F  1683               	bsf	3,5	;RP0=1, select bank1
  4079     0B90  1303               	bcf	3,6	;RP1=0, select bank1
  4080     0B91  0CAB               	rrf	(___fltol@f1+3)^(0+128),f
  4081     0B92  0CAA               	rrf	(___fltol@f1+2)^(0+128),f
  4082     0B93  0CA9               	rrf	(___fltol@f1+1)^(0+128),f
  4083     0B94  0CA8               	rrf	___fltol@f1^(0+128),f
  4084     0B95  3EFF               	addlw	-1
  4085     0B96  1D03               	skipz
  4086     0B97  2B8E               	goto	u2065
  4087     0B98  3001               	movlw	1
  4088     0B99  00AC               	movwf	??___fltol^(0+128)
  4089     0B9A  082C               	movf	??___fltol^(0+128),w
  4090     0B9B  1283               	bcf	3,5	;RP0=0, select bank0
  4091     0B9C  1303               	bcf	3,6	;RP1=0, select bank0
  4092     0B9D  07EF               	addwf	___fltol@exp1,f
  4093     0B9E  1D03               	btfss	3,2
  4094     0B9F  2BA1               	goto	u2071
  4095     0BA0  2BA2               	goto	u2070
  4096     0BA1                     u2071:
  4097     0BA1  2B8D               	goto	l2187
  4098     0BA2                     u2070:
  4099     0BA2  2BBE               	goto	l2197
  4100     0BA3                     l2189:
  4101     0BA3  3020               	movlw	32
  4102     0BA4  026F               	subwf	___fltol@exp1,w
  4103     0BA5  1C03               	skipc
  4104     0BA6  2BA8               	goto	u2081
  4105     0BA7  2BA9               	goto	u2080
  4106     0BA8                     u2081:
  4107     0BA8  2BB9               	goto	l608
  4108     0BA9                     u2080:
  4109     0BA9  2B50               	goto	l2167
  4110     0BAA                     l2195:
  4111     0BAA  3001               	movlw	1
  4112     0BAB  1683               	bsf	3,5	;RP0=1, select bank1
  4113     0BAC  1303               	bcf	3,6	;RP1=0, select bank1
  4114     0BAD  00AC               	movwf	??___fltol^(0+128)
  4115     0BAE                     u2095:
  4116     0BAE  1003               	clrc
  4117     0BAF  0DA8               	rlf	___fltol@f1^(0+128),f
  4118     0BB0  0DA9               	rlf	(___fltol@f1+1)^(0+128),f
  4119     0BB1  0DAA               	rlf	(___fltol@f1+2)^(0+128),f
  4120     0BB2  0DAB               	rlf	(___fltol@f1+3)^(0+128),f
  4121     0BB3  0BAC               	decfsz	??___fltol^(0+128),f
  4122     0BB4  2BAE               	goto	u2095
  4123     0BB5  3001               	movlw	1
  4124     0BB6  1283               	bcf	3,5	;RP0=0, select bank0
  4125     0BB7  1303               	bcf	3,6	;RP1=0, select bank0
  4126     0BB8  02EF               	subwf	___fltol@exp1,f
  4127     0BB9                     l608:
  4128     0BB9  086F               	movf	___fltol@exp1,w
  4129     0BBA  1D03               	btfss	3,2
  4130     0BBB  2BBD               	goto	u2101
  4131     0BBC  2BBE               	goto	u2100
  4132     0BBD                     u2101:
  4133     0BBD  2BAA               	goto	l2195
  4134     0BBE                     u2100:
  4135     0BBE                     l2197:
  4136     0BBE  086E               	movf	___fltol@sign1,w
  4137     0BBF  1903               	btfsc	3,2
  4138     0BC0  2BC2               	goto	u2111
  4139     0BC1  2BC3               	goto	u2110
  4140     0BC2                     u2111:
  4141     0BC2  2BD0               	goto	l611
  4142     0BC3                     u2110:
  4143     0BC3                     l2199:
  4144     0BC3  1683               	bsf	3,5	;RP0=1, select bank1
  4145     0BC4  1303               	bcf	3,6	;RP1=0, select bank1
  4146     0BC5  09A8               	comf	___fltol@f1^(0+128),f
  4147     0BC6  09A9               	comf	(___fltol@f1+1)^(0+128),f
  4148     0BC7  09AA               	comf	(___fltol@f1+2)^(0+128),f
  4149     0BC8  09AB               	comf	(___fltol@f1+3)^(0+128),f
  4150     0BC9  0AA8               	incf	___fltol@f1^(0+128),f
  4151     0BCA  1903               	skipnz
  4152     0BCB  0AA9               	incf	(___fltol@f1+1)^(0+128),f
  4153     0BCC  1903               	skipnz
  4154     0BCD  0AAA               	incf	(___fltol@f1+2)^(0+128),f
  4155     0BCE  1903               	skipnz
  4156     0BCF  0AAB               	incf	(___fltol@f1+3)^(0+128),f
  4157     0BD0                     l611:
  4158     0BD0                     l601:
  4159     0BD0  0008               	return
  4160     0BD1                     __end_of___fltol:
  4161                           
  4162                           	psect	text17
  4163     0029                     __ptext17:	
  4164 ;; *************** function ___flmul *****************
  4165 ;; Defined at:
  4166 ;;		line 8 in file "C:\Program Files\Microchip\xc8\v2.40\pic\sources\c90\common\sprcmul.c"
  4167 ;; Parameters:    Size  Location     Type
  4168 ;;  b               4   40[BANK0 ] long 
  4169 ;;  a               4   44[BANK0 ] long 
  4170 ;; Auto vars:     Size  Location     Type
  4171 ;;  prod            4   60[BANK0 ] struct .
  4172 ;;  grs             4   55[BANK0 ] unsigned long 
  4173 ;;  temp            2   64[BANK0 ] struct .
  4174 ;;  bexp            1   59[BANK0 ] unsigned char 
  4175 ;;  aexp            1   54[BANK0 ] unsigned char 
  4176 ;;  sign            1   53[BANK0 ] unsigned char 
  4177 ;; Return value:  Size  Location     Type
  4178 ;;                  4   40[BANK0 ] unsigned char 
  4179 ;; Registers used:
  4180 ;;		wreg, status,2, status,0, btemp+1, pclath, cstack
  4181 ;; Tracked objects:
  4182 ;;		On entry : 0/0
  4183 ;;		On exit  : 0/0
  4184 ;;		Unchanged: 0/0
  4185 ;; Data sizes:     COMMON   BANK0   BANK1   BANK3   BANK2
  4186 ;;      Params:         0       8       0       0       0
  4187 ;;      Locals:         0      13       0       0       0
  4188 ;;      Temps:          0       5       0       0       0
  4189 ;;      Totals:         0      26       0       0       0
  4190 ;;Total ram usage:       26 bytes
  4191 ;; Hardware stack levels used: 1
  4192 ;; Hardware stack levels required when called: 3
  4193 ;; This function calls:
  4194 ;;		__Umul8_16
  4195 ;; This function is called by:
  4196 ;;		_map
  4197 ;; This function uses a non-reentrant model
  4198 ;;
  4199                           
  4200     0029                     ___flmul:	
  4201                           ;psect for function ___flmul
  4202                           
  4203     0029                     l3297:	
  4204                           ;incstack = 0
  4205                           ; Regs used in ___flmul: [wreg+status,2+status,0+btemp+1+pclath+cstack]
  4206                           
  4207     0029  1283               	bcf	3,5	;RP0=0, select bank0
  4208     002A  1303               	bcf	3,6	;RP1=0, select bank0
  4209     002B  084B               	movf	___flmul@b+3,w
  4210     002C  3980               	andlw	128
  4211     002D  00D5               	movwf	___flmul@sign
  4212     002E                     l3299:
  4213     002E  084B               	movf	___flmul@b+3,w
  4214     002F  00D0               	movwf	??___flmul
  4215     0030  0750               	addwf	??___flmul,w
  4216     0031  00DB               	movwf	___flmul@bexp
  4217     0032                     l3301:
  4218     0032  1FCA               	btfss	___flmul@b+2,7
  4219     0033  2835               	goto	u4061
  4220     0034  2836               	goto	u4060
  4221     0035                     u4061:
  4222     0035  2837               	goto	l3305
  4223     0036                     u4060:
  4224     0036                     l3303:
  4225     0036  145B               	bsf	___flmul@bexp,0
  4226     0037                     l3305:
  4227     0037  085B               	movf	___flmul@bexp,w
  4228     0038  1903               	btfsc	3,2
  4229     0039  283B               	goto	u4071
  4230     003A  283C               	goto	u4070
  4231     003B                     u4071:
  4232     003B  284B               	goto	l3313
  4233     003C                     u4070:
  4234     003C                     l3307:
  4235     003C  0A5B               	incf	___flmul@bexp,w
  4236     003D  1D03               	btfss	3,2
  4237     003E  2840               	goto	u4081
  4238     003F  2841               	goto	u4080
  4239     0040                     u4081:
  4240     0040  2849               	goto	l3311
  4241     0041                     u4080:
  4242     0041                     l3309:
  4243     0041  3000               	movlw	0
  4244     0042  00CB               	movwf	___flmul@b+3
  4245     0043  3000               	movlw	0
  4246     0044  00CA               	movwf	___flmul@b+2
  4247     0045  3000               	movlw	0
  4248     0046  00C9               	movwf	___flmul@b+1
  4249     0047  3000               	movlw	0
  4250     0048  00C8               	movwf	___flmul@b
  4251     0049                     l3311:
  4252     0049  17CA               	bsf	___flmul@b+2,7
  4253     004A  2853               	goto	l3315
  4254     004B                     l3313:
  4255     004B  3000               	movlw	0
  4256     004C  00CB               	movwf	___flmul@b+3
  4257     004D  3000               	movlw	0
  4258     004E  00CA               	movwf	___flmul@b+2
  4259     004F  3000               	movlw	0
  4260     0050  00C9               	movwf	___flmul@b+1
  4261     0051  3000               	movlw	0
  4262     0052  00C8               	movwf	___flmul@b
  4263     0053                     l3315:
  4264     0053  084F               	movf	___flmul@a+3,w
  4265     0054  3980               	andlw	128
  4266     0055  00D0               	movwf	??___flmul
  4267     0056  0850               	movf	??___flmul,w
  4268     0057  06D5               	xorwf	___flmul@sign,f
  4269     0058                     l3317:
  4270     0058  084F               	movf	___flmul@a+3,w
  4271     0059  00D0               	movwf	??___flmul
  4272     005A  0750               	addwf	??___flmul,w
  4273     005B  00D6               	movwf	___flmul@aexp
  4274     005C                     l3319:
  4275     005C  1FCE               	btfss	___flmul@a+2,7
  4276     005D  285F               	goto	u4091
  4277     005E  2860               	goto	u4090
  4278     005F                     u4091:
  4279     005F  2861               	goto	l3323
  4280     0060                     u4090:
  4281     0060                     l3321:
  4282     0060  1456               	bsf	___flmul@aexp,0
  4283     0061                     l3323:
  4284     0061  0856               	movf	___flmul@aexp,w
  4285     0062  1903               	btfsc	3,2
  4286     0063  2865               	goto	u4101
  4287     0064  2866               	goto	u4100
  4288     0065                     u4101:
  4289     0065  2875               	goto	l3331
  4290     0066                     u4100:
  4291     0066                     l3325:
  4292     0066  0A56               	incf	___flmul@aexp,w
  4293     0067  1D03               	btfss	3,2
  4294     0068  286A               	goto	u4111
  4295     0069  286B               	goto	u4110
  4296     006A                     u4111:
  4297     006A  2873               	goto	l3329
  4298     006B                     u4110:
  4299     006B                     l3327:
  4300     006B  3000               	movlw	0
  4301     006C  00CF               	movwf	___flmul@a+3
  4302     006D  3000               	movlw	0
  4303     006E  00CE               	movwf	___flmul@a+2
  4304     006F  3000               	movlw	0
  4305     0070  00CD               	movwf	___flmul@a+1
  4306     0071  3000               	movlw	0
  4307     0072  00CC               	movwf	___flmul@a
  4308     0073                     l3329:
  4309     0073  17CE               	bsf	___flmul@a+2,7
  4310     0074  287D               	goto	l3333
  4311     0075                     l3331:
  4312     0075  3000               	movlw	0
  4313     0076  00CF               	movwf	___flmul@a+3
  4314     0077  3000               	movlw	0
  4315     0078  00CE               	movwf	___flmul@a+2
  4316     0079  3000               	movlw	0
  4317     007A  00CD               	movwf	___flmul@a+1
  4318     007B  3000               	movlw	0
  4319     007C  00CC               	movwf	___flmul@a
  4320     007D                     l3333:
  4321     007D  0856               	movf	___flmul@aexp,w
  4322     007E  1903               	btfsc	3,2
  4323     007F  2881               	goto	u4121
  4324     0080  2882               	goto	u4120
  4325     0081                     u4121:
  4326     0081  2887               	goto	l3337
  4327     0082                     u4120:
  4328     0082                     l3335:
  4329     0082  085B               	movf	___flmul@bexp,w
  4330     0083  1D03               	btfss	3,2
  4331     0084  2886               	goto	u4131
  4332     0085  2887               	goto	u4130
  4333     0086                     u4131:
  4334     0086  2890               	goto	l3341
  4335     0087                     u4130:
  4336     0087                     l3337:
  4337     0087  3000               	movlw	0
  4338     0088  00CB               	movwf	?___flmul+3
  4339     0089  3000               	movlw	0
  4340     008A  00CA               	movwf	?___flmul+2
  4341     008B  3000               	movlw	0
  4342     008C  00C9               	movwf	?___flmul+1
  4343     008D  3000               	movlw	0
  4344     008E  00C8               	movwf	?___flmul
  4345     008F  2B6D               	goto	l804
  4346     0090                     l3341:
  4347     0090  0848               	movf	___flmul@b,w
  4348     0091  00A0               	movwf	__Umul8_16@multiplicand
  4349     0092  084E               	movf	___flmul@a+2,w
  4350     0093  160A  118A  27D7  120A  118A  	fcall	__Umul8_16
  4351     0098  1283               	bcf	3,5	;RP0=0, select bank0
  4352     0099  1303               	bcf	3,6	;RP1=0, select bank0
  4353     009A  0821               	movf	?__Umul8_16+1,w
  4354     009B  00E1               	movwf	___flmul@temp+1
  4355     009C  0820               	movf	?__Umul8_16,w
  4356     009D  00E0               	movwf	___flmul@temp
  4357     009E                     l3343:
  4358     009E  0860               	movf	___flmul@temp,w
  4359     009F  00D0               	movwf	??___flmul
  4360     00A0  01D1               	clrf	??___flmul+1
  4361     00A1  01D2               	clrf	??___flmul+2
  4362     00A2  01D3               	clrf	??___flmul+3
  4363     00A3  0853               	movf	??___flmul+3,w
  4364     00A4  00DA               	movwf	___flmul@grs+3
  4365     00A5  0852               	movf	??___flmul+2,w
  4366     00A6  00D9               	movwf	___flmul@grs+2
  4367     00A7  0851               	movf	??___flmul+1,w
  4368     00A8  00D8               	movwf	___flmul@grs+1
  4369     00A9  0850               	movf	??___flmul,w
  4370     00AA  00D7               	movwf	___flmul@grs
  4371     00AB                     l3345:
  4372     00AB  0861               	movf	___flmul@temp+1,w
  4373     00AC  00D0               	movwf	??___flmul
  4374     00AD  01D1               	clrf	??___flmul+1
  4375     00AE  01D2               	clrf	??___flmul+2
  4376     00AF  01D3               	clrf	??___flmul+3
  4377     00B0  0853               	movf	??___flmul+3,w
  4378     00B1  00DF               	movwf	___flmul@prod+3
  4379     00B2  0852               	movf	??___flmul+2,w
  4380     00B3  00DE               	movwf	___flmul@prod+2
  4381     00B4  0851               	movf	??___flmul+1,w
  4382     00B5  00DD               	movwf	___flmul@prod+1
  4383     00B6  0850               	movf	??___flmul,w
  4384     00B7  00DC               	movwf	___flmul@prod
  4385     00B8  0849               	movf	___flmul@b+1,w
  4386     00B9  00A0               	movwf	__Umul8_16@multiplicand
  4387     00BA  084D               	movf	___flmul@a+1,w
  4388     00BB  160A  118A  27D7  120A  118A  	fcall	__Umul8_16
  4389     00C0  1283               	bcf	3,5	;RP0=0, select bank0
  4390     00C1  1303               	bcf	3,6	;RP1=0, select bank0
  4391     00C2  0821               	movf	?__Umul8_16+1,w
  4392     00C3  00E1               	movwf	___flmul@temp+1
  4393     00C4  0820               	movf	?__Umul8_16,w
  4394     00C5  00E0               	movwf	___flmul@temp
  4395     00C6                     l3347:
  4396     00C6  0860               	movf	___flmul@temp,w
  4397     00C7  00D0               	movwf	??___flmul
  4398     00C8  01D1               	clrf	??___flmul+1
  4399     00C9  01D2               	clrf	??___flmul+2
  4400     00CA  01D3               	clrf	??___flmul+3
  4401     00CB  0850               	movf	??___flmul,w
  4402     00CC  07D7               	addwf	___flmul@grs,f
  4403     00CD  0851               	movf	??___flmul+1,w
  4404     00CE  1103               	clrz
  4405     00CF  1803               	skipnc
  4406     00D0  3E01               	addlw	1
  4407     00D1  1903               	skipnz
  4408     00D2  28D4               	goto	u4141
  4409     00D3  07D8               	addwf	___flmul@grs+1,f
  4410     00D4                     u4141:
  4411     00D4  0852               	movf	??___flmul+2,w
  4412     00D5  1103               	clrz
  4413     00D6  1803               	skipnc
  4414     00D7  3E01               	addlw	1
  4415     00D8  1903               	skipnz
  4416     00D9  28DB               	goto	u4142
  4417     00DA  07D9               	addwf	___flmul@grs+2,f
  4418     00DB                     u4142:
  4419     00DB  0853               	movf	??___flmul+3,w
  4420     00DC  1103               	clrz
  4421     00DD  1803               	skipnc
  4422     00DE  3E01               	addlw	1
  4423     00DF  1903               	skipnz
  4424     00E0  28E2               	goto	u4143
  4425     00E1  07DA               	addwf	___flmul@grs+3,f
  4426     00E2                     u4143:
  4427     00E2                     l3349:
  4428     00E2  0861               	movf	___flmul@temp+1,w
  4429     00E3  00D0               	movwf	??___flmul
  4430     00E4  01D1               	clrf	??___flmul+1
  4431     00E5  01D2               	clrf	??___flmul+2
  4432     00E6  01D3               	clrf	??___flmul+3
  4433     00E7  0850               	movf	??___flmul,w
  4434     00E8  07DC               	addwf	___flmul@prod,f
  4435     00E9  0851               	movf	??___flmul+1,w
  4436     00EA  1103               	clrz
  4437     00EB  1803               	skipnc
  4438     00EC  3E01               	addlw	1
  4439     00ED  1903               	skipnz
  4440     00EE  28F0               	goto	u4151
  4441     00EF  07DD               	addwf	___flmul@prod+1,f
  4442     00F0                     u4151:
  4443     00F0  0852               	movf	??___flmul+2,w
  4444     00F1  1103               	clrz
  4445     00F2  1803               	skipnc
  4446     00F3  3E01               	addlw	1
  4447     00F4  1903               	skipnz
  4448     00F5  28F7               	goto	u4152
  4449     00F6  07DE               	addwf	___flmul@prod+2,f
  4450     00F7                     u4152:
  4451     00F7  0853               	movf	??___flmul+3,w
  4452     00F8  1103               	clrz
  4453     00F9  1803               	skipnc
  4454     00FA  3E01               	addlw	1
  4455     00FB  1903               	skipnz
  4456     00FC  28FE               	goto	u4153
  4457     00FD  07DF               	addwf	___flmul@prod+3,f
  4458     00FE                     u4153:
  4459     00FE  084A               	movf	___flmul@b+2,w
  4460     00FF  00A0               	movwf	__Umul8_16@multiplicand
  4461     0100  084C               	movf	___flmul@a,w
  4462     0101  160A  118A  27D7  120A  118A  	fcall	__Umul8_16
  4463     0106  1283               	bcf	3,5	;RP0=0, select bank0
  4464     0107  1303               	bcf	3,6	;RP1=0, select bank0
  4465     0108  0821               	movf	?__Umul8_16+1,w
  4466     0109  00E1               	movwf	___flmul@temp+1
  4467     010A  0820               	movf	?__Umul8_16,w
  4468     010B  00E0               	movwf	___flmul@temp
  4469     010C                     l3351:
  4470     010C  0860               	movf	___flmul@temp,w
  4471     010D  00D0               	movwf	??___flmul
  4472     010E  01D1               	clrf	??___flmul+1
  4473     010F  01D2               	clrf	??___flmul+2
  4474     0110  01D3               	clrf	??___flmul+3
  4475     0111  0850               	movf	??___flmul,w
  4476     0112  07D7               	addwf	___flmul@grs,f
  4477     0113  0851               	movf	??___flmul+1,w
  4478     0114  1103               	clrz
  4479     0115  1803               	skipnc
  4480     0116  3E01               	addlw	1
  4481     0117  1903               	skipnz
  4482     0118  291A               	goto	u4161
  4483     0119  07D8               	addwf	___flmul@grs+1,f
  4484     011A                     u4161:
  4485     011A  0852               	movf	??___flmul+2,w
  4486     011B  1103               	clrz
  4487     011C  1803               	skipnc
  4488     011D  3E01               	addlw	1
  4489     011E  1903               	skipnz
  4490     011F  2921               	goto	u4162
  4491     0120  07D9               	addwf	___flmul@grs+2,f
  4492     0121                     u4162:
  4493     0121  0853               	movf	??___flmul+3,w
  4494     0122  1103               	clrz
  4495     0123  1803               	skipnc
  4496     0124  3E01               	addlw	1
  4497     0125  1903               	skipnz
  4498     0126  2928               	goto	u4163
  4499     0127  07DA               	addwf	___flmul@grs+3,f
  4500     0128                     u4163:
  4501     0128                     l3353:
  4502     0128  0861               	movf	___flmul@temp+1,w
  4503     0129  00D0               	movwf	??___flmul
  4504     012A  01D1               	clrf	??___flmul+1
  4505     012B  01D2               	clrf	??___flmul+2
  4506     012C  01D3               	clrf	??___flmul+3
  4507     012D  0850               	movf	??___flmul,w
  4508     012E  07DC               	addwf	___flmul@prod,f
  4509     012F  0851               	movf	??___flmul+1,w
  4510     0130  1103               	clrz
  4511     0131  1803               	skipnc
  4512     0132  3E01               	addlw	1
  4513     0133  1903               	skipnz
  4514     0134  2936               	goto	u4171
  4515     0135  07DD               	addwf	___flmul@prod+1,f
  4516     0136                     u4171:
  4517     0136  0852               	movf	??___flmul+2,w
  4518     0137  1103               	clrz
  4519     0138  1803               	skipnc
  4520     0139  3E01               	addlw	1
  4521     013A  1903               	skipnz
  4522     013B  293D               	goto	u4172
  4523     013C  07DE               	addwf	___flmul@prod+2,f
  4524     013D                     u4172:
  4525     013D  0853               	movf	??___flmul+3,w
  4526     013E  1103               	clrz
  4527     013F  1803               	skipnc
  4528     0140  3E01               	addlw	1
  4529     0141  1903               	skipnz
  4530     0142  2944               	goto	u4173
  4531     0143  07DF               	addwf	___flmul@prod+3,f
  4532     0144                     u4173:
  4533     0144                     l3355:
  4534     0144  3008               	movlw	8
  4535     0145  00D0               	movwf	??___flmul
  4536     0146                     u4185:
  4537     0146  1003               	clrc
  4538     0147  0DD7               	rlf	___flmul@grs,f
  4539     0148  0DD8               	rlf	___flmul@grs+1,f
  4540     0149  0DD9               	rlf	___flmul@grs+2,f
  4541     014A  0DDA               	rlf	___flmul@grs+3,f
  4542     014B  0BD0               	decfsz	??___flmul,f
  4543     014C  2946               	goto	u4185
  4544     014D                     l3357:
  4545     014D  0849               	movf	___flmul@b+1,w
  4546     014E  00A0               	movwf	__Umul8_16@multiplicand
  4547     014F  084C               	movf	___flmul@a,w
  4548     0150  160A  118A  27D7  120A  118A  	fcall	__Umul8_16
  4549     0155  1283               	bcf	3,5	;RP0=0, select bank0
  4550     0156  1303               	bcf	3,6	;RP1=0, select bank0
  4551     0157  0821               	movf	?__Umul8_16+1,w
  4552     0158  00E1               	movwf	___flmul@temp+1
  4553     0159  0820               	movf	?__Umul8_16,w
  4554     015A  00E0               	movwf	___flmul@temp
  4555     015B                     l3359:
  4556     015B  0860               	movf	___flmul@temp,w
  4557     015C  00D0               	movwf	??___flmul
  4558     015D  0861               	movf	___flmul@temp+1,w
  4559     015E  00D1               	movwf	??___flmul+1
  4560     015F  01D2               	clrf	??___flmul+2
  4561     0160  01D3               	clrf	??___flmul+3
  4562     0161  0850               	movf	??___flmul,w
  4563     0162  07D7               	addwf	___flmul@grs,f
  4564     0163  0851               	movf	??___flmul+1,w
  4565     0164  1103               	clrz
  4566     0165  1803               	skipnc
  4567     0166  3E01               	addlw	1
  4568     0167  1903               	skipnz
  4569     0168  296A               	goto	u4191
  4570     0169  07D8               	addwf	___flmul@grs+1,f
  4571     016A                     u4191:
  4572     016A  0852               	movf	??___flmul+2,w
  4573     016B  1103               	clrz
  4574     016C  1803               	skipnc
  4575     016D  3E01               	addlw	1
  4576     016E  1903               	skipnz
  4577     016F  2971               	goto	u4192
  4578     0170  07D9               	addwf	___flmul@grs+2,f
  4579     0171                     u4192:
  4580     0171  0853               	movf	??___flmul+3,w
  4581     0172  1103               	clrz
  4582     0173  1803               	skipnc
  4583     0174  3E01               	addlw	1
  4584     0175  1903               	skipnz
  4585     0176  2978               	goto	u4193
  4586     0177  07DA               	addwf	___flmul@grs+3,f
  4587     0178                     u4193:
  4588     0178                     l3361:
  4589     0178  0848               	movf	___flmul@b,w
  4590     0179  00A0               	movwf	__Umul8_16@multiplicand
  4591     017A  084D               	movf	___flmul@a+1,w
  4592     017B  160A  118A  27D7  120A  118A  	fcall	__Umul8_16
  4593     0180  1283               	bcf	3,5	;RP0=0, select bank0
  4594     0181  1303               	bcf	3,6	;RP1=0, select bank0
  4595     0182  0821               	movf	?__Umul8_16+1,w
  4596     0183  00E1               	movwf	___flmul@temp+1
  4597     0184  0820               	movf	?__Umul8_16,w
  4598     0185  00E0               	movwf	___flmul@temp
  4599     0186                     l3363:
  4600     0186  0860               	movf	___flmul@temp,w
  4601     0187  00D0               	movwf	??___flmul
  4602     0188  0861               	movf	___flmul@temp+1,w
  4603     0189  00D1               	movwf	??___flmul+1
  4604     018A  01D2               	clrf	??___flmul+2
  4605     018B  01D3               	clrf	??___flmul+3
  4606     018C  0850               	movf	??___flmul,w
  4607     018D  07D7               	addwf	___flmul@grs,f
  4608     018E  0851               	movf	??___flmul+1,w
  4609     018F  1103               	clrz
  4610     0190  1803               	skipnc
  4611     0191  3E01               	addlw	1
  4612     0192  1903               	skipnz
  4613     0193  2995               	goto	u4201
  4614     0194  07D8               	addwf	___flmul@grs+1,f
  4615     0195                     u4201:
  4616     0195  0852               	movf	??___flmul+2,w
  4617     0196  1103               	clrz
  4618     0197  1803               	skipnc
  4619     0198  3E01               	addlw	1
  4620     0199  1903               	skipnz
  4621     019A  299C               	goto	u4202
  4622     019B  07D9               	addwf	___flmul@grs+2,f
  4623     019C                     u4202:
  4624     019C  0853               	movf	??___flmul+3,w
  4625     019D  1103               	clrz
  4626     019E  1803               	skipnc
  4627     019F  3E01               	addlw	1
  4628     01A0  1903               	skipnz
  4629     01A1  29A3               	goto	u4203
  4630     01A2  07DA               	addwf	___flmul@grs+3,f
  4631     01A3                     u4203:
  4632     01A3                     l3365:
  4633     01A3  3008               	movlw	8
  4634     01A4  00D0               	movwf	??___flmul
  4635     01A5                     u4215:
  4636     01A5  1003               	clrc
  4637     01A6  0DD7               	rlf	___flmul@grs,f
  4638     01A7  0DD8               	rlf	___flmul@grs+1,f
  4639     01A8  0DD9               	rlf	___flmul@grs+2,f
  4640     01A9  0DDA               	rlf	___flmul@grs+3,f
  4641     01AA  0BD0               	decfsz	??___flmul,f
  4642     01AB  29A5               	goto	u4215
  4643     01AC  0848               	movf	___flmul@b,w
  4644     01AD  00A0               	movwf	__Umul8_16@multiplicand
  4645     01AE  084C               	movf	___flmul@a,w
  4646     01AF  160A  118A  27D7  120A  118A  	fcall	__Umul8_16
  4647     01B4  1283               	bcf	3,5	;RP0=0, select bank0
  4648     01B5  1303               	bcf	3,6	;RP1=0, select bank0
  4649     01B6  0821               	movf	?__Umul8_16+1,w
  4650     01B7  00E1               	movwf	___flmul@temp+1
  4651     01B8  0820               	movf	?__Umul8_16,w
  4652     01B9  00E0               	movwf	___flmul@temp
  4653     01BA                     l3367:
  4654     01BA  0860               	movf	___flmul@temp,w
  4655     01BB  00D0               	movwf	??___flmul
  4656     01BC  0861               	movf	___flmul@temp+1,w
  4657     01BD  00D1               	movwf	??___flmul+1
  4658     01BE  01D2               	clrf	??___flmul+2
  4659     01BF  01D3               	clrf	??___flmul+3
  4660     01C0  0850               	movf	??___flmul,w
  4661     01C1  07D7               	addwf	___flmul@grs,f
  4662     01C2  0851               	movf	??___flmul+1,w
  4663     01C3  1103               	clrz
  4664     01C4  1803               	skipnc
  4665     01C5  3E01               	addlw	1
  4666     01C6  1903               	skipnz
  4667     01C7  29C9               	goto	u4221
  4668     01C8  07D8               	addwf	___flmul@grs+1,f
  4669     01C9                     u4221:
  4670     01C9  0852               	movf	??___flmul+2,w
  4671     01CA  1103               	clrz
  4672     01CB  1803               	skipnc
  4673     01CC  3E01               	addlw	1
  4674     01CD  1903               	skipnz
  4675     01CE  29D0               	goto	u4222
  4676     01CF  07D9               	addwf	___flmul@grs+2,f
  4677     01D0                     u4222:
  4678     01D0  0853               	movf	??___flmul+3,w
  4679     01D1  1103               	clrz
  4680     01D2  1803               	skipnc
  4681     01D3  3E01               	addlw	1
  4682     01D4  1903               	skipnz
  4683     01D5  29D7               	goto	u4223
  4684     01D6  07DA               	addwf	___flmul@grs+3,f
  4685     01D7                     u4223:
  4686     01D7                     l3369:
  4687     01D7  0849               	movf	___flmul@b+1,w
  4688     01D8  00A0               	movwf	__Umul8_16@multiplicand
  4689     01D9  084E               	movf	___flmul@a+2,w
  4690     01DA  160A  118A  27D7  120A  118A  	fcall	__Umul8_16
  4691     01DF  1283               	bcf	3,5	;RP0=0, select bank0
  4692     01E0  1303               	bcf	3,6	;RP1=0, select bank0
  4693     01E1  0821               	movf	?__Umul8_16+1,w
  4694     01E2  00E1               	movwf	___flmul@temp+1
  4695     01E3  0820               	movf	?__Umul8_16,w
  4696     01E4  00E0               	movwf	___flmul@temp
  4697     01E5  0860               	movf	___flmul@temp,w
  4698     01E6  00D0               	movwf	??___flmul
  4699     01E7  0861               	movf	___flmul@temp+1,w
  4700     01E8  00D1               	movwf	??___flmul+1
  4701     01E9  01D2               	clrf	??___flmul+2
  4702     01EA  01D3               	clrf	??___flmul+3
  4703     01EB  0850               	movf	??___flmul,w
  4704     01EC  07DC               	addwf	___flmul@prod,f
  4705     01ED  0851               	movf	??___flmul+1,w
  4706     01EE  1103               	clrz
  4707     01EF  1803               	skipnc
  4708     01F0  3E01               	addlw	1
  4709     01F1  1903               	skipnz
  4710     01F2  29F4               	goto	u4231
  4711     01F3  07DD               	addwf	___flmul@prod+1,f
  4712     01F4                     u4231:
  4713     01F4  0852               	movf	??___flmul+2,w
  4714     01F5  1103               	clrz
  4715     01F6  1803               	skipnc
  4716     01F7  3E01               	addlw	1
  4717     01F8  1903               	skipnz
  4718     01F9  29FB               	goto	u4232
  4719     01FA  07DE               	addwf	___flmul@prod+2,f
  4720     01FB                     u4232:
  4721     01FB  0853               	movf	??___flmul+3,w
  4722     01FC  1103               	clrz
  4723     01FD  1803               	skipnc
  4724     01FE  3E01               	addlw	1
  4725     01FF  1903               	skipnz
  4726     0200  2A02               	goto	u4233
  4727     0201  07DF               	addwf	___flmul@prod+3,f
  4728     0202                     u4233:
  4729     0202                     l3371:
  4730     0202  084A               	movf	___flmul@b+2,w
  4731     0203  00A0               	movwf	__Umul8_16@multiplicand
  4732     0204  084D               	movf	___flmul@a+1,w
  4733     0205  160A  118A  27D7  120A  118A  	fcall	__Umul8_16
  4734     020A  1283               	bcf	3,5	;RP0=0, select bank0
  4735     020B  1303               	bcf	3,6	;RP1=0, select bank0
  4736     020C  0821               	movf	?__Umul8_16+1,w
  4737     020D  00E1               	movwf	___flmul@temp+1
  4738     020E  0820               	movf	?__Umul8_16,w
  4739     020F  00E0               	movwf	___flmul@temp
  4740     0210                     l3373:
  4741     0210  0860               	movf	___flmul@temp,w
  4742     0211  00D0               	movwf	??___flmul
  4743     0212  0861               	movf	___flmul@temp+1,w
  4744     0213  00D1               	movwf	??___flmul+1
  4745     0214  01D2               	clrf	??___flmul+2
  4746     0215  01D3               	clrf	??___flmul+3
  4747     0216  0850               	movf	??___flmul,w
  4748     0217  07DC               	addwf	___flmul@prod,f
  4749     0218  0851               	movf	??___flmul+1,w
  4750     0219  1103               	clrz
  4751     021A  1803               	skipnc
  4752     021B  3E01               	addlw	1
  4753     021C  1903               	skipnz
  4754     021D  2A1F               	goto	u4241
  4755     021E  07DD               	addwf	___flmul@prod+1,f
  4756     021F                     u4241:
  4757     021F  0852               	movf	??___flmul+2,w
  4758     0220  1103               	clrz
  4759     0221  1803               	skipnc
  4760     0222  3E01               	addlw	1
  4761     0223  1903               	skipnz
  4762     0224  2A26               	goto	u4242
  4763     0225  07DE               	addwf	___flmul@prod+2,f
  4764     0226                     u4242:
  4765     0226  0853               	movf	??___flmul+3,w
  4766     0227  1103               	clrz
  4767     0228  1803               	skipnc
  4768     0229  3E01               	addlw	1
  4769     022A  1903               	skipnz
  4770     022B  2A2D               	goto	u4243
  4771     022C  07DF               	addwf	___flmul@prod+3,f
  4772     022D                     u4243:
  4773     022D  084A               	movf	___flmul@b+2,w
  4774     022E  00A0               	movwf	__Umul8_16@multiplicand
  4775     022F  084E               	movf	___flmul@a+2,w
  4776     0230  160A  118A  27D7  120A  118A  	fcall	__Umul8_16
  4777     0235  1283               	bcf	3,5	;RP0=0, select bank0
  4778     0236  1303               	bcf	3,6	;RP1=0, select bank0
  4779     0237  0821               	movf	?__Umul8_16+1,w
  4780     0238  00E1               	movwf	___flmul@temp+1
  4781     0239  0820               	movf	?__Umul8_16,w
  4782     023A  00E0               	movwf	___flmul@temp
  4783     023B                     l3375:
  4784     023B  0860               	movf	___flmul@temp,w
  4785     023C  00D0               	movwf	??___flmul
  4786     023D  0861               	movf	___flmul@temp+1,w
  4787     023E  00D1               	movwf	??___flmul+1
  4788     023F  01D2               	clrf	??___flmul+2
  4789     0240  01D3               	clrf	??___flmul+3
  4790     0241  3008               	movlw	8
  4791     0242                     u4255:
  4792     0242  1003               	clrc
  4793     0243  0DD0               	rlf	??___flmul,f
  4794     0244  0DD1               	rlf	??___flmul+1,f
  4795     0245  0DD2               	rlf	??___flmul+2,f
  4796     0246  0DD3               	rlf	??___flmul+3,f
  4797     0247                     u4250:
  4798     0247  3EFF               	addlw	-1
  4799     0248  1D03               	skipz
  4800     0249  2A42               	goto	u4255
  4801     024A  0850               	movf	??___flmul,w
  4802     024B  07DC               	addwf	___flmul@prod,f
  4803     024C  0851               	movf	??___flmul+1,w
  4804     024D  1103               	clrz
  4805     024E  1803               	skipnc
  4806     024F  3E01               	addlw	1
  4807     0250  1903               	skipnz
  4808     0251  2A53               	goto	u4261
  4809     0252  07DD               	addwf	___flmul@prod+1,f
  4810     0253                     u4261:
  4811     0253  0852               	movf	??___flmul+2,w
  4812     0254  1103               	clrz
  4813     0255  1803               	skipnc
  4814     0256  3E01               	addlw	1
  4815     0257  1903               	skipnz
  4816     0258  2A5A               	goto	u4262
  4817     0259  07DE               	addwf	___flmul@prod+2,f
  4818     025A                     u4262:
  4819     025A  0853               	movf	??___flmul+3,w
  4820     025B  1103               	clrz
  4821     025C  1803               	skipnc
  4822     025D  3E01               	addlw	1
  4823     025E  1903               	skipnz
  4824     025F  2A61               	goto	u4263
  4825     0260  07DF               	addwf	___flmul@prod+3,f
  4826     0261                     u4263:
  4827     0261                     l3377:
  4828     0261  0857               	movf	___flmul@grs,w
  4829     0262  00D0               	movwf	??___flmul
  4830     0263  0858               	movf	___flmul@grs+1,w
  4831     0264  00D1               	movwf	??___flmul+1
  4832     0265  0859               	movf	___flmul@grs+2,w
  4833     0266  00D2               	movwf	??___flmul+2
  4834     0267  085A               	movf	___flmul@grs+3,w
  4835     0268  00D3               	movwf	??___flmul+3
  4836     0269  3018               	movlw	24
  4837     026A                     u4275:
  4838     026A  1003               	clrc
  4839     026B  0CD3               	rrf	??___flmul+3,f
  4840     026C  0CD2               	rrf	??___flmul+2,f
  4841     026D  0CD1               	rrf	??___flmul+1,f
  4842     026E  0CD0               	rrf	??___flmul,f
  4843     026F                     u4270:
  4844     026F  3EFF               	addlw	-1
  4845     0270  1D03               	skipz
  4846     0271  2A6A               	goto	u4275
  4847     0272  0850               	movf	??___flmul,w
  4848     0273  07DC               	addwf	___flmul@prod,f
  4849     0274  0851               	movf	??___flmul+1,w
  4850     0275  1103               	clrz
  4851     0276  1803               	skipnc
  4852     0277  3E01               	addlw	1
  4853     0278  1903               	skipnz
  4854     0279  2A7B               	goto	u4281
  4855     027A  07DD               	addwf	___flmul@prod+1,f
  4856     027B                     u4281:
  4857     027B  0852               	movf	??___flmul+2,w
  4858     027C  1103               	clrz
  4859     027D  1803               	skipnc
  4860     027E  3E01               	addlw	1
  4861     027F  1903               	skipnz
  4862     0280  2A82               	goto	u4282
  4863     0281  07DE               	addwf	___flmul@prod+2,f
  4864     0282                     u4282:
  4865     0282  0853               	movf	??___flmul+3,w
  4866     0283  1103               	clrz
  4867     0284  1803               	skipnc
  4868     0285  3E01               	addlw	1
  4869     0286  1903               	skipnz
  4870     0287  2A89               	goto	u4283
  4871     0288  07DF               	addwf	___flmul@prod+3,f
  4872     0289                     u4283:
  4873     0289                     l3379:
  4874     0289  3008               	movlw	8
  4875     028A  00D0               	movwf	??___flmul
  4876     028B                     u4295:
  4877     028B  1003               	clrc
  4878     028C  0DD7               	rlf	___flmul@grs,f
  4879     028D  0DD8               	rlf	___flmul@grs+1,f
  4880     028E  0DD9               	rlf	___flmul@grs+2,f
  4881     028F  0DDA               	rlf	___flmul@grs+3,f
  4882     0290  0BD0               	decfsz	??___flmul,f
  4883     0291  2A8B               	goto	u4295
  4884     0292                     l3381:
  4885     0292  085B               	movf	___flmul@bexp,w
  4886     0293  0756               	addwf	___flmul@aexp,w
  4887     0294  00D0               	movwf	??___flmul
  4888     0295  01D1               	clrf	??___flmul+1
  4889     0296  0DD1               	rlf	??___flmul+1,f
  4890     0297  0850               	movf	??___flmul,w
  4891     0298  3E82               	addlw	130
  4892     0299  00E0               	movwf	___flmul@temp
  4893     029A  0851               	movf	??___flmul+1,w
  4894     029B  1803               	skipnc
  4895     029C  3E01               	addlw	1
  4896     029D  3EFF               	addlw	255
  4897     029E  00E1               	movwf	___flmul@temp+1
  4898     029F  2ABD               	goto	l3393
  4899     02A0                     l3383:
  4900     02A0  3001               	movlw	1
  4901     02A1  00D0               	movwf	??___flmul
  4902     02A2                     u4305:
  4903     02A2  1003               	clrc
  4904     02A3  0DDC               	rlf	___flmul@prod,f
  4905     02A4  0DDD               	rlf	___flmul@prod+1,f
  4906     02A5  0DDE               	rlf	___flmul@prod+2,f
  4907     02A6  0DDF               	rlf	___flmul@prod+3,f
  4908     02A7  0BD0               	decfsz	??___flmul,f
  4909     02A8  2AA2               	goto	u4305
  4910     02A9                     l3385:
  4911     02A9  1FDA               	btfss	___flmul@grs+3,7
  4912     02AA  2AAC               	goto	u4311
  4913     02AB  2AAD               	goto	u4310
  4914     02AC                     u4311:
  4915     02AC  2AAE               	goto	l3389
  4916     02AD                     u4310:
  4917     02AD                     l3387:
  4918     02AD  145C               	bsf	___flmul@prod,0
  4919     02AE                     l3389:
  4920     02AE  3001               	movlw	1
  4921     02AF  00D0               	movwf	??___flmul
  4922     02B0                     u4325:
  4923     02B0  1003               	clrc
  4924     02B1  0DD7               	rlf	___flmul@grs,f
  4925     02B2  0DD8               	rlf	___flmul@grs+1,f
  4926     02B3  0DD9               	rlf	___flmul@grs+2,f
  4927     02B4  0DDA               	rlf	___flmul@grs+3,f
  4928     02B5  0BD0               	decfsz	??___flmul,f
  4929     02B6  2AB0               	goto	u4325
  4930     02B7                     l3391:
  4931     02B7  30FF               	movlw	255
  4932     02B8  07E0               	addwf	___flmul@temp,f
  4933     02B9  1803               	skipnc
  4934     02BA  0AE1               	incf	___flmul@temp+1,f
  4935     02BB  30FF               	movlw	255
  4936     02BC  07E1               	addwf	___flmul@temp+1,f
  4937     02BD                     l3393:
  4938     02BD  1FDE               	btfss	___flmul@prod+2,7
  4939     02BE  2AC0               	goto	u4331
  4940     02BF  2AC1               	goto	u4330
  4941     02C0                     u4331:
  4942     02C0  2AA0               	goto	l3383
  4943     02C1                     u4330:
  4944     02C1                     l3395:
  4945     02C1  01D6               	clrf	___flmul@aexp
  4946     02C2                     l3397:
  4947     02C2  1FDA               	btfss	___flmul@grs+3,7
  4948     02C3  2AC5               	goto	u4341
  4949     02C4  2AC6               	goto	u4340
  4950     02C5                     u4341:
  4951     02C5  2AE2               	goto	l3405
  4952     02C6                     u4340:
  4953     02C6                     l3399:
  4954     02C6  30FF               	movlw	255
  4955     02C7  0557               	andwf	___flmul@grs,w
  4956     02C8  00D0               	movwf	??___flmul
  4957     02C9  30FF               	movlw	255
  4958     02CA  0558               	andwf	___flmul@grs+1,w
  4959     02CB  00D1               	movwf	??___flmul+1
  4960     02CC  30FF               	movlw	255
  4961     02CD  0559               	andwf	___flmul@grs+2,w
  4962     02CE  00D2               	movwf	??___flmul+2
  4963     02CF  307F               	movlw	127
  4964     02D0  055A               	andwf	___flmul@grs+3,w
  4965     02D1  00D3               	movwf	??___flmul+3
  4966     02D2  0853               	movf	??___flmul+3,w
  4967     02D3  0452               	iorwf	??___flmul+2,w
  4968     02D4  0451               	iorwf	??___flmul+1,w
  4969     02D5  0450               	iorwf	??___flmul,w
  4970     02D6  1903               	skipnz
  4971     02D7  2AD9               	goto	u4351
  4972     02D8  2ADA               	goto	u4350
  4973     02D9                     u4351:
  4974     02D9  2ADD               	goto	l810
  4975     02DA                     u4350:
  4976     02DA                     l3401:
  4977     02DA  01D6               	clrf	___flmul@aexp
  4978     02DB  0AD6               	incf	___flmul@aexp,f
  4979     02DC  2AE2               	goto	l3405
  4980     02DD                     l810:
  4981     02DD  1C5C               	btfss	___flmul@prod,0
  4982     02DE  2AE0               	goto	u4361
  4983     02DF  2AE1               	goto	u4360
  4984     02E0                     u4361:
  4985     02E0  2AE2               	goto	l3405
  4986     02E1                     u4360:
  4987     02E1  2ADA               	goto	l3401
  4988     02E2                     l3405:
  4989     02E2  0856               	movf	___flmul@aexp,w
  4990     02E3  1903               	btfsc	3,2
  4991     02E4  2AE6               	goto	u4371
  4992     02E5  2AE7               	goto	u4370
  4993     02E6                     u4371:
  4994     02E6  2B18               	goto	l3415
  4995     02E7                     u4370:
  4996     02E7                     l3407:
  4997     02E7  3001               	movlw	1
  4998     02E8  07DC               	addwf	___flmul@prod,f
  4999     02E9  3000               	movlw	0
  5000     02EA  1803               	skipnc
  5001     02EB  3001               	movlw	1
  5002     02EC  07DD               	addwf	___flmul@prod+1,f
  5003     02ED  3000               	movlw	0
  5004     02EE  1803               	skipnc
  5005     02EF  3001               	movlw	1
  5006     02F0  07DE               	addwf	___flmul@prod+2,f
  5007     02F1  3000               	movlw	0
  5008     02F2  1803               	skipnc
  5009     02F3  3001               	movlw	1
  5010     02F4  07DF               	addwf	___flmul@prod+3,f
  5011     02F5                     l3409:
  5012     02F5  1C5F               	btfss	___flmul@prod+3,0
  5013     02F6  2AF8               	goto	u4381
  5014     02F7  2AF9               	goto	u4380
  5015     02F8                     u4381:
  5016     02F8  2B18               	goto	l3415
  5017     02F9                     u4380:
  5018     02F9                     l3411:
  5019     02F9  085C               	movf	___flmul@prod,w
  5020     02FA  00D0               	movwf	??___flmul
  5021     02FB  085D               	movf	___flmul@prod+1,w
  5022     02FC  00D1               	movwf	??___flmul+1
  5023     02FD  085E               	movf	___flmul@prod+2,w
  5024     02FE  00D2               	movwf	??___flmul+2
  5025     02FF  085F               	movf	___flmul@prod+3,w
  5026     0300  00D3               	movwf	??___flmul+3
  5027     0301  3001               	movlw	1
  5028     0302  00D4               	movwf	??___flmul+4
  5029     0303                     u4395:
  5030     0303  0D53               	rlf	??___flmul+3,w
  5031     0304  0CD3               	rrf	??___flmul+3,f
  5032     0305  0CD2               	rrf	??___flmul+2,f
  5033     0306  0CD1               	rrf	??___flmul+1,f
  5034     0307  0CD0               	rrf	??___flmul,f
  5035     0308                     u4390:
  5036     0308  0BD4               	decfsz	??___flmul+4,f
  5037     0309  2B03               	goto	u4395
  5038     030A  0853               	movf	??___flmul+3,w
  5039     030B  00DF               	movwf	___flmul@prod+3
  5040     030C  0852               	movf	??___flmul+2,w
  5041     030D  00DE               	movwf	___flmul@prod+2
  5042     030E  0851               	movf	??___flmul+1,w
  5043     030F  00DD               	movwf	___flmul@prod+1
  5044     0310  0850               	movf	??___flmul,w
  5045     0311  00DC               	movwf	___flmul@prod
  5046     0312                     l3413:
  5047     0312  3001               	movlw	1
  5048     0313  07E0               	addwf	___flmul@temp,f
  5049     0314  1803               	skipnc
  5050     0315  0AE1               	incf	___flmul@temp+1,f
  5051     0316  3000               	movlw	0
  5052     0317  07E1               	addwf	___flmul@temp+1,f
  5053     0318                     l3415:
  5054     0318  0861               	movf	___flmul@temp+1,w
  5055     0319  3A80               	xorlw	128
  5056     031A  00FF               	movwf	btemp+1
  5057     031B  3080               	movlw	128
  5058     031C  027F               	subwf	btemp+1,w
  5059     031D  1D03               	skipz
  5060     031E  2B21               	goto	u4405
  5061     031F  30FF               	movlw	255
  5062     0320  0260               	subwf	___flmul@temp,w
  5063     0321                     u4405:
  5064     0321  1C03               	skipc
  5065     0322  2B24               	goto	u4401
  5066     0323  2B25               	goto	u4400
  5067     0324                     u4401:
  5068     0324  2B30               	goto	l3419
  5069     0325                     u4400:
  5070     0325                     l3417:
  5071     0325  307F               	movlw	127
  5072     0326  1283               	bcf	3,5	;RP0=0, select bank0
  5073     0327  1303               	bcf	3,6	;RP1=0, select bank0
  5074     0328  00DF               	movwf	___flmul@prod+3
  5075     0329  3080               	movlw	128
  5076     032A  00DE               	movwf	___flmul@prod+2
  5077     032B  3000               	movlw	0
  5078     032C  00DD               	movwf	___flmul@prod+1
  5079     032D  3000               	movlw	0
  5080     032E  00DC               	movwf	___flmul@prod
  5081     032F  2B61               	goto	l816
  5082     0330                     l3419:
  5083     0330  1283               	bcf	3,5	;RP0=0, select bank0
  5084     0331  1303               	bcf	3,6	;RP1=0, select bank0
  5085     0332  0861               	movf	___flmul@temp+1,w
  5086     0333  3A80               	xorlw	128
  5087     0334  00FF               	movwf	btemp+1
  5088     0335  3080               	movlw	128
  5089     0336  027F               	subwf	btemp+1,w
  5090     0337  1D03               	skipz
  5091     0338  2B3B               	goto	u4415
  5092     0339  3001               	movlw	1
  5093     033A  0260               	subwf	___flmul@temp,w
  5094     033B                     u4415:
  5095     033B  1803               	skipnc
  5096     033C  2B3E               	goto	u4411
  5097     033D  2B3F               	goto	u4410
  5098     033E                     u4411:
  5099     033E  2B4B               	goto	l3425
  5100     033F                     u4410:
  5101     033F                     l3421:
  5102     033F  3000               	movlw	0
  5103     0340  1283               	bcf	3,5	;RP0=0, select bank0
  5104     0341  1303               	bcf	3,6	;RP1=0, select bank0
  5105     0342  00DF               	movwf	___flmul@prod+3
  5106     0343  3000               	movlw	0
  5107     0344  00DE               	movwf	___flmul@prod+2
  5108     0345  3000               	movlw	0
  5109     0346  00DD               	movwf	___flmul@prod+1
  5110     0347  3000               	movlw	0
  5111     0348  00DC               	movwf	___flmul@prod
  5112     0349                     l3423:
  5113     0349  01D5               	clrf	___flmul@sign
  5114     034A  2B61               	goto	l816
  5115     034B                     l3425:
  5116     034B  1283               	bcf	3,5	;RP0=0, select bank0
  5117     034C  1303               	bcf	3,6	;RP1=0, select bank0
  5118     034D  0860               	movf	___flmul@temp,w
  5119     034E  00DB               	movwf	___flmul@bexp
  5120     034F  30FF               	movlw	255
  5121     0350  05DC               	andwf	___flmul@prod,f
  5122     0351  30FF               	movlw	255
  5123     0352  05DD               	andwf	___flmul@prod+1,f
  5124     0353  307F               	movlw	127
  5125     0354  05DE               	andwf	___flmul@prod+2,f
  5126     0355  3000               	movlw	0
  5127     0356  05DF               	andwf	___flmul@prod+3,f
  5128     0357                     l3427:
  5129     0357  1C5B               	btfss	___flmul@bexp,0
  5130     0358  2B5A               	goto	u4421
  5131     0359  2B5B               	goto	u4420
  5132     035A                     u4421:
  5133     035A  2B5C               	goto	l3431
  5134     035B                     u4420:
  5135     035B                     l3429:
  5136     035B  17DE               	bsf	___flmul@prod+2,7
  5137     035C                     l3431:
  5138     035C  085B               	movf	___flmul@bexp,w
  5139     035D  00D0               	movwf	??___flmul
  5140     035E  1003               	clrc
  5141     035F  0C50               	rrf	??___flmul,w
  5142     0360  00DF               	movwf	___flmul@prod+3
  5143     0361                     l816:
  5144     0361  0855               	movf	___flmul@sign,w
  5145     0362  00D0               	movwf	??___flmul
  5146     0363  0850               	movf	??___flmul,w
  5147     0364  04DF               	iorwf	___flmul@prod+3,f
  5148     0365                     l3433:
  5149     0365  085F               	movf	___flmul@prod+3,w
  5150     0366  00CB               	movwf	?___flmul+3
  5151     0367  085E               	movf	___flmul@prod+2,w
  5152     0368  00CA               	movwf	?___flmul+2
  5153     0369  085D               	movf	___flmul@prod+1,w
  5154     036A  00C9               	movwf	?___flmul+1
  5155     036B  085C               	movf	___flmul@prod,w
  5156     036C  00C8               	movwf	?___flmul
  5157     036D                     l804:
  5158     036D  0008               	return
  5159     036E                     __end_of___flmul:
  5160                           
  5161                           	psect	text18
  5162     17D7                     __ptext18:	
  5163 ;; *************** function __Umul8_16 *****************
  5164 ;; Defined at:
  5165 ;;		line 4 in file "C:\Program Files\Microchip\xc8\v2.40\pic\sources\c90\common\Umul8_16.c"
  5166 ;; Parameters:    Size  Location     Type
  5167 ;;  multiplier      1    wreg     unsigned char 
  5168 ;;  multiplicand    1    0[BANK0 ] unsigned char 
  5169 ;; Auto vars:     Size  Location     Type
  5170 ;;  multiplier      1    8[BANK0 ] unsigned char 
  5171 ;;  word_mpld       2    6[BANK0 ] unsigned int 
  5172 ;;  product         2    4[BANK0 ] unsigned int 
  5173 ;; Return value:  Size  Location     Type
  5174 ;;                  2    0[BANK0 ] unsigned int 
  5175 ;; Registers used:
  5176 ;;		wreg, status,2, status,0
  5177 ;; Tracked objects:
  5178 ;;		On entry : 0/0
  5179 ;;		On exit  : 0/0
  5180 ;;		Unchanged: 0/0
  5181 ;; Data sizes:     COMMON   BANK0   BANK1   BANK3   BANK2
  5182 ;;      Params:         0       2       0       0       0
  5183 ;;      Locals:         0       5       0       0       0
  5184 ;;      Temps:          0       2       0       0       0
  5185 ;;      Totals:         0       9       0       0       0
  5186 ;;Total ram usage:        9 bytes
  5187 ;; Hardware stack levels used: 1
  5188 ;; Hardware stack levels required when called: 2
  5189 ;; This function calls:
  5190 ;;		Nothing
  5191 ;; This function is called by:
  5192 ;;		___flmul
  5193 ;; This function uses a non-reentrant model
  5194 ;;
  5195                           
  5196     17D7                     __Umul8_16:	
  5197                           ;psect for function __Umul8_16
  5198                           
  5199                           
  5200                           ;incstack = 0
  5201                           ; Regs used in __Umul8_16: [wreg+status,2+status,0]
  5202                           ;__Umul8_16@multiplier stored from wreg
  5203     17D7  1283               	bcf	3,5	;RP0=0, select bank0
  5204     17D8  1303               	bcf	3,6	;RP1=0, select bank0
  5205     17D9  00A8               	movwf	__Umul8_16@multiplier
  5206     17DA                     l3141:
  5207     17DA  01A4               	clrf	__Umul8_16@product
  5208     17DB  01A5               	clrf	__Umul8_16@product+1
  5209     17DC                     l3143:
  5210     17DC  0820               	movf	__Umul8_16@multiplicand,w
  5211     17DD  00A2               	movwf	??__Umul8_16
  5212     17DE  01A3               	clrf	??__Umul8_16+1
  5213     17DF  0822               	movf	??__Umul8_16,w
  5214     17E0  00A6               	movwf	__Umul8_16@word_mpld
  5215     17E1  0823               	movf	??__Umul8_16+1,w
  5216     17E2  00A7               	movwf	__Umul8_16@word_mpld+1
  5217     17E3                     l3145:
  5218     17E3  1C28               	btfss	__Umul8_16@multiplier,0
  5219     17E4  2FE6               	goto	u3871
  5220     17E5  2FE7               	goto	u3870
  5221     17E6                     u3871:
  5222     17E6  2FED               	goto	l823
  5223     17E7                     u3870:
  5224     17E7                     l3147:
  5225     17E7  0826               	movf	__Umul8_16@word_mpld,w
  5226     17E8  07A4               	addwf	__Umul8_16@product,f
  5227     17E9  1803               	skipnc
  5228     17EA  0AA5               	incf	__Umul8_16@product+1,f
  5229     17EB  0827               	movf	__Umul8_16@word_mpld+1,w
  5230     17EC  07A5               	addwf	__Umul8_16@product+1,f
  5231     17ED                     l823:
  5232     17ED  3001               	movlw	1
  5233     17EE                     u3885:
  5234     17EE  1003               	clrc
  5235     17EF  0DA6               	rlf	__Umul8_16@word_mpld,f
  5236     17F0  0DA7               	rlf	__Umul8_16@word_mpld+1,f
  5237     17F1  3EFF               	addlw	-1
  5238     17F2  1D03               	skipz
  5239     17F3  2FEE               	goto	u3885
  5240     17F4  1003               	clrc
  5241     17F5  0CA8               	rrf	__Umul8_16@multiplier,f
  5242     17F6                     l3149:
  5243     17F6  0828               	movf	__Umul8_16@multiplier,w
  5244     17F7  1D03               	btfss	3,2
  5245     17F8  2FFA               	goto	u3891
  5246     17F9  2FFB               	goto	u3890
  5247     17FA                     u3891:
  5248     17FA  2FE3               	goto	l3145
  5249     17FB                     u3890:
  5250     17FB                     l3151:
  5251     17FB  0825               	movf	__Umul8_16@product+1,w
  5252     17FC  00A1               	movwf	?__Umul8_16+1
  5253     17FD  0824               	movf	__Umul8_16@product,w
  5254     17FE  00A0               	movwf	?__Umul8_16
  5255     17FF                     l825:
  5256     17FF  0008               	return
  5257     1800                     __end_of__Umul8_16:
  5258                           
  5259                           	psect	text19
  5260     0E2D                     __ptext19:	
  5261 ;; *************** function ___fldiv *****************
  5262 ;; Defined at:
  5263 ;;		line 8 in file "C:\Program Files\Microchip\xc8\v2.40\pic\sources\c90\common\sprcdiv.c"
  5264 ;; Parameters:    Size  Location     Type
  5265 ;;  a               4   14[BANK0 ] unsigned int 
  5266 ;;  b               4   18[BANK0 ] unsigned int 
  5267 ;; Auto vars:     Size  Location     Type
  5268 ;;  grs             4   34[BANK0 ] unsigned long 
  5269 ;;  rem             4   27[BANK0 ] unsigned long 
  5270 ;;  new_exp         2   32[BANK0 ] int 
  5271 ;;  aexp            1   39[BANK0 ] unsigned char 
  5272 ;;  bexp            1   38[BANK0 ] unsigned char 
  5273 ;;  sign            1   31[BANK0 ] unsigned char 
  5274 ;; Return value:  Size  Location     Type
  5275 ;;                  4   14[BANK0 ] unsigned char 
  5276 ;; Registers used:
  5277 ;;		wreg, status,2, status,0, btemp+1
  5278 ;; Tracked objects:
  5279 ;;		On entry : 0/0
  5280 ;;		On exit  : 0/0
  5281 ;;		Unchanged: 0/0
  5282 ;; Data sizes:     COMMON   BANK0   BANK1   BANK3   BANK2
  5283 ;;      Params:         0       8       0       0       0
  5284 ;;      Locals:         0      13       0       0       0
  5285 ;;      Temps:          0       5       0       0       0
  5286 ;;      Totals:         0      26       0       0       0
  5287 ;;Total ram usage:       26 bytes
  5288 ;; Hardware stack levels used: 1
  5289 ;; Hardware stack levels required when called: 2
  5290 ;; This function calls:
  5291 ;;		Nothing
  5292 ;; This function is called by:
  5293 ;;		_map
  5294 ;; This function uses a non-reentrant model
  5295 ;;
  5296                           
  5297     0E2D                     ___fldiv:	
  5298                           ;psect for function ___fldiv
  5299                           
  5300     0E2D                     l2443:	
  5301                           ;incstack = 0
  5302                           ; Regs used in ___fldiv: [wreg+status,2+status,0+btemp+1]
  5303                           
  5304     0E2D  1283               	bcf	3,5	;RP0=0, select bank0
  5305     0E2E  1303               	bcf	3,6	;RP1=0, select bank0
  5306     0E2F  0835               	movf	___fldiv@b+3,w
  5307     0E30  3980               	andlw	128
  5308     0E31  00BF               	movwf	___fldiv@sign
  5309     0E32                     l2445:
  5310     0E32  0835               	movf	___fldiv@b+3,w
  5311     0E33  00B6               	movwf	??___fldiv
  5312     0E34  0736               	addwf	??___fldiv,w
  5313     0E35  00C6               	movwf	___fldiv@bexp
  5314     0E36                     l2447:
  5315     0E36  1FB4               	btfss	___fldiv@b+2,7
  5316     0E37  2E39               	goto	u2711
  5317     0E38  2E3A               	goto	u2710
  5318     0E39                     u2711:
  5319     0E39  2E3B               	goto	l2451
  5320     0E3A                     u2710:
  5321     0E3A                     l2449:
  5322     0E3A  1446               	bsf	___fldiv@bexp,0
  5323     0E3B                     l2451:
  5324     0E3B  0846               	movf	___fldiv@bexp,w
  5325     0E3C  1903               	btfsc	3,2
  5326     0E3D  2E3F               	goto	u2721
  5327     0E3E  2E40               	goto	u2720
  5328     0E3F                     u2721:
  5329     0E3F  2E50               	goto	l2461
  5330     0E40                     u2720:
  5331     0E40                     l2453:
  5332     0E40  0A46               	incf	___fldiv@bexp,w
  5333     0E41  1D03               	btfss	3,2
  5334     0E42  2E44               	goto	u2731
  5335     0E43  2E45               	goto	u2730
  5336     0E44                     u2731:
  5337     0E44  2E4D               	goto	l2457
  5338     0E45                     u2730:
  5339     0E45                     l2455:
  5340     0E45  3000               	movlw	0
  5341     0E46  00B5               	movwf	___fldiv@b+3
  5342     0E47  3000               	movlw	0
  5343     0E48  00B4               	movwf	___fldiv@b+2
  5344     0E49  3000               	movlw	0
  5345     0E4A  00B3               	movwf	___fldiv@b+1
  5346     0E4B  3000               	movlw	0
  5347     0E4C  00B2               	movwf	___fldiv@b
  5348     0E4D                     l2457:
  5349     0E4D  17B4               	bsf	___fldiv@b+2,7
  5350     0E4E                     l2459:
  5351     0E4E  01B5               	clrf	___fldiv@b+3
  5352     0E4F  2E58               	goto	l2463
  5353     0E50                     l2461:
  5354     0E50  3000               	movlw	0
  5355     0E51  00B5               	movwf	___fldiv@b+3
  5356     0E52  3000               	movlw	0
  5357     0E53  00B4               	movwf	___fldiv@b+2
  5358     0E54  3000               	movlw	0
  5359     0E55  00B3               	movwf	___fldiv@b+1
  5360     0E56  3000               	movlw	0
  5361     0E57  00B2               	movwf	___fldiv@b
  5362     0E58                     l2463:
  5363     0E58  0831               	movf	___fldiv@a+3,w
  5364     0E59  3980               	andlw	128
  5365     0E5A  00B6               	movwf	??___fldiv
  5366     0E5B  0836               	movf	??___fldiv,w
  5367     0E5C  06BF               	xorwf	___fldiv@sign,f
  5368     0E5D                     l2465:
  5369     0E5D  0831               	movf	___fldiv@a+3,w
  5370     0E5E  00B6               	movwf	??___fldiv
  5371     0E5F  0736               	addwf	??___fldiv,w
  5372     0E60  00C7               	movwf	___fldiv@aexp
  5373     0E61                     l2467:
  5374     0E61  1FB0               	btfss	___fldiv@a+2,7
  5375     0E62  2E64               	goto	u2741
  5376     0E63  2E65               	goto	u2740
  5377     0E64                     u2741:
  5378     0E64  2E66               	goto	l2471
  5379     0E65                     u2740:
  5380     0E65                     l2469:
  5381     0E65  1447               	bsf	___fldiv@aexp,0
  5382     0E66                     l2471:
  5383     0E66  0847               	movf	___fldiv@aexp,w
  5384     0E67  1903               	btfsc	3,2
  5385     0E68  2E6A               	goto	u2751
  5386     0E69  2E6B               	goto	u2750
  5387     0E6A                     u2751:
  5388     0E6A  2E7B               	goto	l2481
  5389     0E6B                     u2750:
  5390     0E6B                     l2473:
  5391     0E6B  0A47               	incf	___fldiv@aexp,w
  5392     0E6C  1D03               	btfss	3,2
  5393     0E6D  2E6F               	goto	u2761
  5394     0E6E  2E70               	goto	u2760
  5395     0E6F                     u2761:
  5396     0E6F  2E78               	goto	l2477
  5397     0E70                     u2760:
  5398     0E70                     l2475:
  5399     0E70  3000               	movlw	0
  5400     0E71  00B1               	movwf	___fldiv@a+3
  5401     0E72  3000               	movlw	0
  5402     0E73  00B0               	movwf	___fldiv@a+2
  5403     0E74  3000               	movlw	0
  5404     0E75  00AF               	movwf	___fldiv@a+1
  5405     0E76  3000               	movlw	0
  5406     0E77  00AE               	movwf	___fldiv@a
  5407     0E78                     l2477:
  5408     0E78  17B0               	bsf	___fldiv@a+2,7
  5409     0E79                     l2479:
  5410     0E79  01B1               	clrf	___fldiv@a+3
  5411     0E7A  2E83               	goto	l764
  5412     0E7B                     l2481:
  5413     0E7B  3000               	movlw	0
  5414     0E7C  00B1               	movwf	___fldiv@a+3
  5415     0E7D  3000               	movlw	0
  5416     0E7E  00B0               	movwf	___fldiv@a+2
  5417     0E7F  3000               	movlw	0
  5418     0E80  00AF               	movwf	___fldiv@a+1
  5419     0E81  3000               	movlw	0
  5420     0E82  00AE               	movwf	___fldiv@a
  5421     0E83                     l764:
  5422     0E83  0831               	movf	___fldiv@a+3,w
  5423     0E84  0430               	iorwf	___fldiv@a+2,w
  5424     0E85  042F               	iorwf	___fldiv@a+1,w
  5425     0E86  042E               	iorwf	___fldiv@a,w
  5426     0E87  1D03               	skipz
  5427     0E88  2E8A               	goto	u2771
  5428     0E89  2E8B               	goto	u2770
  5429     0E8A                     u2771:
  5430     0E8A  2EA4               	goto	l2491
  5431     0E8B                     u2770:
  5432     0E8B                     l2483:
  5433     0E8B  3000               	movlw	0
  5434     0E8C  00B5               	movwf	___fldiv@b+3
  5435     0E8D  3000               	movlw	0
  5436     0E8E  00B4               	movwf	___fldiv@b+2
  5437     0E8F  3000               	movlw	0
  5438     0E90  00B3               	movwf	___fldiv@b+1
  5439     0E91  3000               	movlw	0
  5440     0E92  00B2               	movwf	___fldiv@b
  5441     0E93  3080               	movlw	128
  5442     0E94  04B4               	iorwf	___fldiv@b+2,f
  5443     0E95  307F               	movlw	127
  5444     0E96  04B5               	iorwf	___fldiv@b+3,f
  5445     0E97                     l2485:
  5446     0E97  083F               	movf	___fldiv@sign,w
  5447     0E98  00B6               	movwf	??___fldiv
  5448     0E99  0836               	movf	??___fldiv,w
  5449     0E9A  04B5               	iorwf	___fldiv@b+3,f
  5450     0E9B                     l2487:
  5451     0E9B  0835               	movf	___fldiv@b+3,w
  5452     0E9C  00B1               	movwf	?___fldiv+3
  5453     0E9D  0834               	movf	___fldiv@b+2,w
  5454     0E9E  00B0               	movwf	?___fldiv+2
  5455     0E9F  0833               	movf	___fldiv@b+1,w
  5456     0EA0  00AF               	movwf	?___fldiv+1
  5457     0EA1  0832               	movf	___fldiv@b,w
  5458     0EA2  00AE               	movwf	?___fldiv
  5459     0EA3  2FFF               	goto	l766
  5460     0EA4                     l2491:
  5461     0EA4  0846               	movf	___fldiv@bexp,w
  5462     0EA5  1D03               	btfss	3,2
  5463     0EA6  2EA8               	goto	u2781
  5464     0EA7  2EA9               	goto	u2780
  5465     0EA8                     u2781:
  5466     0EA8  2EB2               	goto	l2497
  5467     0EA9                     u2780:
  5468     0EA9                     l2493:
  5469     0EA9  3000               	movlw	0
  5470     0EAA  00B1               	movwf	?___fldiv+3
  5471     0EAB  3000               	movlw	0
  5472     0EAC  00B0               	movwf	?___fldiv+2
  5473     0EAD  3000               	movlw	0
  5474     0EAE  00AF               	movwf	?___fldiv+1
  5475     0EAF  3000               	movlw	0
  5476     0EB0  00AE               	movwf	?___fldiv
  5477     0EB1  2FFF               	goto	l766
  5478     0EB2                     l2497:
  5479     0EB2  0846               	movf	___fldiv@bexp,w
  5480     0EB3  00B6               	movwf	??___fldiv
  5481     0EB4  01B7               	clrf	??___fldiv+1
  5482     0EB5  0837               	movf	??___fldiv+1,w
  5483     0EB6  00B9               	movwf	??___fldiv+3
  5484     0EB7  0847               	movf	___fldiv@aexp,w
  5485     0EB8  0236               	subwf	??___fldiv,w
  5486     0EB9  00B8               	movwf	??___fldiv+2
  5487     0EBA  1C03               	skipc
  5488     0EBB  03B9               	decf	??___fldiv+3,f
  5489     0EBC  0838               	movf	??___fldiv+2,w
  5490     0EBD  3E7F               	addlw	127
  5491     0EBE  00C0               	movwf	___fldiv@new_exp
  5492     0EBF  0839               	movf	??___fldiv+3,w
  5493     0EC0  1803               	skipnc
  5494     0EC1  3E01               	addlw	1
  5495     0EC2  3E00               	addlw	0
  5496     0EC3  00C1               	movwf	___fldiv@new_exp+1
  5497     0EC4                     l2499:
  5498     0EC4  0835               	movf	___fldiv@b+3,w
  5499     0EC5  00BE               	movwf	___fldiv@rem+3
  5500     0EC6  0834               	movf	___fldiv@b+2,w
  5501     0EC7  00BD               	movwf	___fldiv@rem+2
  5502     0EC8  0833               	movf	___fldiv@b+1,w
  5503     0EC9  00BC               	movwf	___fldiv@rem+1
  5504     0ECA  0832               	movf	___fldiv@b,w
  5505     0ECB  00BB               	movwf	___fldiv@rem
  5506     0ECC                     l2501:
  5507     0ECC  3000               	movlw	0
  5508     0ECD  00B5               	movwf	___fldiv@b+3
  5509     0ECE  3000               	movlw	0
  5510     0ECF  00B4               	movwf	___fldiv@b+2
  5511     0ED0  3000               	movlw	0
  5512     0ED1  00B3               	movwf	___fldiv@b+1
  5513     0ED2  3000               	movlw	0
  5514     0ED3  00B2               	movwf	___fldiv@b
  5515     0ED4                     l2503:
  5516     0ED4  3000               	movlw	0
  5517     0ED5  00C5               	movwf	___fldiv@grs+3
  5518     0ED6  3000               	movlw	0
  5519     0ED7  00C4               	movwf	___fldiv@grs+2
  5520     0ED8  3000               	movlw	0
  5521     0ED9  00C3               	movwf	___fldiv@grs+1
  5522     0EDA  3000               	movlw	0
  5523     0EDB  00C2               	movwf	___fldiv@grs
  5524     0EDC                     l2505:
  5525     0EDC  01C7               	clrf	___fldiv@aexp
  5526     0EDD  2F28               	goto	l2525
  5527     0EDE                     l2507:
  5528     0EDE  0847               	movf	___fldiv@aexp,w
  5529     0EDF  1903               	btfsc	3,2
  5530     0EE0  2EE2               	goto	u2791
  5531     0EE1  2EE3               	goto	u2790
  5532     0EE2                     u2791:
  5533     0EE2  2F03               	goto	l2517
  5534     0EE3                     u2790:
  5535     0EE3                     l2509:
  5536     0EE3  3001               	movlw	1
  5537     0EE4  00B6               	movwf	??___fldiv
  5538     0EE5                     u2805:
  5539     0EE5  1003               	clrc
  5540     0EE6  0DBB               	rlf	___fldiv@rem,f
  5541     0EE7  0DBC               	rlf	___fldiv@rem+1,f
  5542     0EE8  0DBD               	rlf	___fldiv@rem+2,f
  5543     0EE9  0DBE               	rlf	___fldiv@rem+3,f
  5544     0EEA  0BB6               	decfsz	??___fldiv,f
  5545     0EEB  2EE5               	goto	u2805
  5546     0EEC  3001               	movlw	1
  5547     0EED  00B6               	movwf	??___fldiv
  5548     0EEE                     u2815:
  5549     0EEE  1003               	clrc
  5550     0EEF  0DB2               	rlf	___fldiv@b,f
  5551     0EF0  0DB3               	rlf	___fldiv@b+1,f
  5552     0EF1  0DB4               	rlf	___fldiv@b+2,f
  5553     0EF2  0DB5               	rlf	___fldiv@b+3,f
  5554     0EF3  0BB6               	decfsz	??___fldiv,f
  5555     0EF4  2EEE               	goto	u2815
  5556     0EF5                     l2511:
  5557     0EF5  1FC5               	btfss	___fldiv@grs+3,7
  5558     0EF6  2EF8               	goto	u2821
  5559     0EF7  2EF9               	goto	u2820
  5560     0EF8                     u2821:
  5561     0EF8  2EFA               	goto	l2515
  5562     0EF9                     u2820:
  5563     0EF9                     l2513:
  5564     0EF9  1432               	bsf	___fldiv@b,0
  5565     0EFA                     l2515:
  5566     0EFA  3001               	movlw	1
  5567     0EFB  00B6               	movwf	??___fldiv
  5568     0EFC                     u2835:
  5569     0EFC  1003               	clrc
  5570     0EFD  0DC2               	rlf	___fldiv@grs,f
  5571     0EFE  0DC3               	rlf	___fldiv@grs+1,f
  5572     0EFF  0DC4               	rlf	___fldiv@grs+2,f
  5573     0F00  0DC5               	rlf	___fldiv@grs+3,f
  5574     0F01  0BB6               	decfsz	??___fldiv,f
  5575     0F02  2EFC               	goto	u2835
  5576     0F03                     l2517:
  5577     0F03  0831               	movf	___fldiv@a+3,w
  5578     0F04  023E               	subwf	___fldiv@rem+3,w
  5579     0F05  1D03               	skipz
  5580     0F06  2F11               	goto	u2845
  5581     0F07  0830               	movf	___fldiv@a+2,w
  5582     0F08  023D               	subwf	___fldiv@rem+2,w
  5583     0F09  1D03               	skipz
  5584     0F0A  2F11               	goto	u2845
  5585     0F0B  082F               	movf	___fldiv@a+1,w
  5586     0F0C  023C               	subwf	___fldiv@rem+1,w
  5587     0F0D  1D03               	skipz
  5588     0F0E  2F11               	goto	u2845
  5589     0F0F  082E               	movf	___fldiv@a,w
  5590     0F10  023B               	subwf	___fldiv@rem,w
  5591     0F11                     u2845:
  5592     0F11  1C03               	skipc
  5593     0F12  2F14               	goto	u2841
  5594     0F13  2F15               	goto	u2840
  5595     0F14                     u2841:
  5596     0F14  2F24               	goto	l2523
  5597     0F15                     u2840:
  5598     0F15                     l2519:
  5599     0F15  1745               	bsf	___fldiv@grs+3,6
  5600     0F16                     l2521:
  5601     0F16  082E               	movf	___fldiv@a,w
  5602     0F17  02BB               	subwf	___fldiv@rem,f
  5603     0F18  082F               	movf	___fldiv@a+1,w
  5604     0F19  1C03               	skipc
  5605     0F1A  0F2F               	incfsz	___fldiv@a+1,w
  5606     0F1B  02BC               	subwf	___fldiv@rem+1,f
  5607     0F1C  0830               	movf	___fldiv@a+2,w
  5608     0F1D  1C03               	skipc
  5609     0F1E  0F30               	incfsz	___fldiv@a+2,w
  5610     0F1F  02BD               	subwf	___fldiv@rem+2,f
  5611     0F20  0831               	movf	___fldiv@a+3,w
  5612     0F21  1C03               	skipc
  5613     0F22  0F31               	incfsz	___fldiv@a+3,w
  5614     0F23  02BE               	subwf	___fldiv@rem+3,f
  5615     0F24                     l2523:
  5616     0F24  3001               	movlw	1
  5617     0F25  00B6               	movwf	??___fldiv
  5618     0F26  0836               	movf	??___fldiv,w
  5619     0F27  07C7               	addwf	___fldiv@aexp,f
  5620     0F28                     l2525:
  5621     0F28  301A               	movlw	26
  5622     0F29  0247               	subwf	___fldiv@aexp,w
  5623     0F2A  1C03               	skipc
  5624     0F2B  2F2D               	goto	u2851
  5625     0F2C  2F2E               	goto	u2850
  5626     0F2D                     u2851:
  5627     0F2D  2EDE               	goto	l2507
  5628     0F2E                     u2850:
  5629     0F2E                     l2527:
  5630     0F2E  083E               	movf	___fldiv@rem+3,w
  5631     0F2F  043D               	iorwf	___fldiv@rem+2,w
  5632     0F30  043C               	iorwf	___fldiv@rem+1,w
  5633     0F31  043B               	iorwf	___fldiv@rem,w
  5634     0F32  1903               	skipnz
  5635     0F33  2F35               	goto	u2861
  5636     0F34  2F36               	goto	u2860
  5637     0F35                     u2861:
  5638     0F35  2F55               	goto	l2541
  5639     0F36                     u2860:
  5640     0F36                     l2529:
  5641     0F36  1442               	bsf	___fldiv@grs,0
  5642     0F37  2F55               	goto	l2541
  5643     0F38                     l2531:
  5644     0F38  3001               	movlw	1
  5645     0F39  00B6               	movwf	??___fldiv
  5646     0F3A                     u2875:
  5647     0F3A  1003               	clrc
  5648     0F3B  0DB2               	rlf	___fldiv@b,f
  5649     0F3C  0DB3               	rlf	___fldiv@b+1,f
  5650     0F3D  0DB4               	rlf	___fldiv@b+2,f
  5651     0F3E  0DB5               	rlf	___fldiv@b+3,f
  5652     0F3F  0BB6               	decfsz	??___fldiv,f
  5653     0F40  2F3A               	goto	u2875
  5654     0F41                     l2533:
  5655     0F41  1FC5               	btfss	___fldiv@grs+3,7
  5656     0F42  2F44               	goto	u2881
  5657     0F43  2F45               	goto	u2880
  5658     0F44                     u2881:
  5659     0F44  2F46               	goto	l2537
  5660     0F45                     u2880:
  5661     0F45                     l2535:
  5662     0F45  1432               	bsf	___fldiv@b,0
  5663     0F46                     l2537:
  5664     0F46  3001               	movlw	1
  5665     0F47  00B6               	movwf	??___fldiv
  5666     0F48                     u2895:
  5667     0F48  1003               	clrc
  5668     0F49  0DC2               	rlf	___fldiv@grs,f
  5669     0F4A  0DC3               	rlf	___fldiv@grs+1,f
  5670     0F4B  0DC4               	rlf	___fldiv@grs+2,f
  5671     0F4C  0DC5               	rlf	___fldiv@grs+3,f
  5672     0F4D  0BB6               	decfsz	??___fldiv,f
  5673     0F4E  2F48               	goto	u2895
  5674     0F4F                     l2539:
  5675     0F4F  30FF               	movlw	255
  5676     0F50  07C0               	addwf	___fldiv@new_exp,f
  5677     0F51  1803               	skipnc
  5678     0F52  0AC1               	incf	___fldiv@new_exp+1,f
  5679     0F53  30FF               	movlw	255
  5680     0F54  07C1               	addwf	___fldiv@new_exp+1,f
  5681     0F55                     l2541:
  5682     0F55  1FB4               	btfss	___fldiv@b+2,7
  5683     0F56  2F58               	goto	u2901
  5684     0F57  2F59               	goto	u2900
  5685     0F58                     u2901:
  5686     0F58  2F38               	goto	l2531
  5687     0F59                     u2900:
  5688     0F59                     l2543:
  5689     0F59  01C7               	clrf	___fldiv@aexp
  5690     0F5A                     l2545:
  5691     0F5A  1FC5               	btfss	___fldiv@grs+3,7
  5692     0F5B  2F5D               	goto	u2911
  5693     0F5C  2F5E               	goto	u2910
  5694     0F5D                     u2911:
  5695     0F5D  2F7A               	goto	l2553
  5696     0F5E                     u2910:
  5697     0F5E                     l2547:
  5698     0F5E  30FF               	movlw	255
  5699     0F5F  0542               	andwf	___fldiv@grs,w
  5700     0F60  00B6               	movwf	??___fldiv
  5701     0F61  30FF               	movlw	255
  5702     0F62  0543               	andwf	___fldiv@grs+1,w
  5703     0F63  00B7               	movwf	??___fldiv+1
  5704     0F64  30FF               	movlw	255
  5705     0F65  0544               	andwf	___fldiv@grs+2,w
  5706     0F66  00B8               	movwf	??___fldiv+2
  5707     0F67  307F               	movlw	127
  5708     0F68  0545               	andwf	___fldiv@grs+3,w
  5709     0F69  00B9               	movwf	??___fldiv+3
  5710     0F6A  0839               	movf	??___fldiv+3,w
  5711     0F6B  0438               	iorwf	??___fldiv+2,w
  5712     0F6C  0437               	iorwf	??___fldiv+1,w
  5713     0F6D  0436               	iorwf	??___fldiv,w
  5714     0F6E  1903               	skipnz
  5715     0F6F  2F71               	goto	u2921
  5716     0F70  2F72               	goto	u2920
  5717     0F71                     u2921:
  5718     0F71  2F75               	goto	l780
  5719     0F72                     u2920:
  5720     0F72                     l2549:
  5721     0F72  01C7               	clrf	___fldiv@aexp
  5722     0F73  0AC7               	incf	___fldiv@aexp,f
  5723     0F74  2F7A               	goto	l2553
  5724     0F75                     l780:
  5725     0F75  1C32               	btfss	___fldiv@b,0
  5726     0F76  2F78               	goto	u2931
  5727     0F77  2F79               	goto	u2930
  5728     0F78                     u2931:
  5729     0F78  2F7A               	goto	l2553
  5730     0F79                     u2930:
  5731     0F79  2F72               	goto	l2549
  5732     0F7A                     l2553:
  5733     0F7A  0847               	movf	___fldiv@aexp,w
  5734     0F7B  1903               	btfsc	3,2
  5735     0F7C  2F7E               	goto	u2941
  5736     0F7D  2F7F               	goto	u2940
  5737     0F7E                     u2941:
  5738     0F7E  2FB0               	goto	l2563
  5739     0F7F                     u2940:
  5740     0F7F                     l2555:
  5741     0F7F  3001               	movlw	1
  5742     0F80  07B2               	addwf	___fldiv@b,f
  5743     0F81  3000               	movlw	0
  5744     0F82  1803               	skipnc
  5745     0F83  3001               	movlw	1
  5746     0F84  07B3               	addwf	___fldiv@b+1,f
  5747     0F85  3000               	movlw	0
  5748     0F86  1803               	skipnc
  5749     0F87  3001               	movlw	1
  5750     0F88  07B4               	addwf	___fldiv@b+2,f
  5751     0F89  3000               	movlw	0
  5752     0F8A  1803               	skipnc
  5753     0F8B  3001               	movlw	1
  5754     0F8C  07B5               	addwf	___fldiv@b+3,f
  5755     0F8D                     l2557:
  5756     0F8D  1C35               	btfss	___fldiv@b+3,0
  5757     0F8E  2F90               	goto	u2951
  5758     0F8F  2F91               	goto	u2950
  5759     0F90                     u2951:
  5760     0F90  2FB0               	goto	l2563
  5761     0F91                     u2950:
  5762     0F91                     l2559:
  5763     0F91  0832               	movf	___fldiv@b,w
  5764     0F92  00B6               	movwf	??___fldiv
  5765     0F93  0833               	movf	___fldiv@b+1,w
  5766     0F94  00B7               	movwf	??___fldiv+1
  5767     0F95  0834               	movf	___fldiv@b+2,w
  5768     0F96  00B8               	movwf	??___fldiv+2
  5769     0F97  0835               	movf	___fldiv@b+3,w
  5770     0F98  00B9               	movwf	??___fldiv+3
  5771     0F99  3001               	movlw	1
  5772     0F9A  00BA               	movwf	??___fldiv+4
  5773     0F9B                     u2965:
  5774     0F9B  0D39               	rlf	??___fldiv+3,w
  5775     0F9C  0CB9               	rrf	??___fldiv+3,f
  5776     0F9D  0CB8               	rrf	??___fldiv+2,f
  5777     0F9E  0CB7               	rrf	??___fldiv+1,f
  5778     0F9F  0CB6               	rrf	??___fldiv,f
  5779     0FA0                     u2960:
  5780     0FA0  0BBA               	decfsz	??___fldiv+4,f
  5781     0FA1  2F9B               	goto	u2965
  5782     0FA2  0839               	movf	??___fldiv+3,w
  5783     0FA3  00B5               	movwf	___fldiv@b+3
  5784     0FA4  0838               	movf	??___fldiv+2,w
  5785     0FA5  00B4               	movwf	___fldiv@b+2
  5786     0FA6  0837               	movf	??___fldiv+1,w
  5787     0FA7  00B3               	movwf	___fldiv@b+1
  5788     0FA8  0836               	movf	??___fldiv,w
  5789     0FA9  00B2               	movwf	___fldiv@b
  5790     0FAA                     l2561:
  5791     0FAA  3001               	movlw	1
  5792     0FAB  07C0               	addwf	___fldiv@new_exp,f
  5793     0FAC  1803               	skipnc
  5794     0FAD  0AC1               	incf	___fldiv@new_exp+1,f
  5795     0FAE  3000               	movlw	0
  5796     0FAF  07C1               	addwf	___fldiv@new_exp+1,f
  5797     0FB0                     l2563:
  5798     0FB0  0841               	movf	___fldiv@new_exp+1,w
  5799     0FB1  3A80               	xorlw	128
  5800     0FB2  00FF               	movwf	btemp+1
  5801     0FB3  3080               	movlw	128
  5802     0FB4  027F               	subwf	btemp+1,w
  5803     0FB5  1D03               	skipz
  5804     0FB6  2FB9               	goto	u2975
  5805     0FB7  30FF               	movlw	255
  5806     0FB8  0240               	subwf	___fldiv@new_exp,w
  5807     0FB9                     u2975:
  5808     0FB9  1C03               	skipc
  5809     0FBA  2FBC               	goto	u2971
  5810     0FBB  2FBD               	goto	u2970
  5811     0FBC                     u2971:
  5812     0FBC  2FCB               	goto	l2567
  5813     0FBD                     u2970:
  5814     0FBD                     l2565:
  5815     0FBD  30FF               	movlw	255
  5816     0FBE  1283               	bcf	3,5	;RP0=0, select bank0
  5817     0FBF  1303               	bcf	3,6	;RP1=0, select bank0
  5818     0FC0  00C0               	movwf	___fldiv@new_exp
  5819     0FC1  3000               	movlw	0
  5820     0FC2  00C1               	movwf	___fldiv@new_exp+1
  5821     0FC3  3000               	movlw	0
  5822     0FC4  00B5               	movwf	___fldiv@b+3
  5823     0FC5  3000               	movlw	0
  5824     0FC6  00B4               	movwf	___fldiv@b+2
  5825     0FC7  3000               	movlw	0
  5826     0FC8  00B3               	movwf	___fldiv@b+1
  5827     0FC9  3000               	movlw	0
  5828     0FCA  00B2               	movwf	___fldiv@b
  5829     0FCB                     l2567:
  5830     0FCB  1283               	bcf	3,5	;RP0=0, select bank0
  5831     0FCC  1303               	bcf	3,6	;RP1=0, select bank0
  5832     0FCD  0841               	movf	___fldiv@new_exp+1,w
  5833     0FCE  3A80               	xorlw	128
  5834     0FCF  00FF               	movwf	btemp+1
  5835     0FD0  3080               	movlw	128
  5836     0FD1  027F               	subwf	btemp+1,w
  5837     0FD2  1D03               	skipz
  5838     0FD3  2FD6               	goto	u2985
  5839     0FD4  3001               	movlw	1
  5840     0FD5  0240               	subwf	___fldiv@new_exp,w
  5841     0FD6                     u2985:
  5842     0FD6  1803               	skipnc
  5843     0FD7  2FD9               	goto	u2981
  5844     0FD8  2FDA               	goto	u2980
  5845     0FD9                     u2981:
  5846     0FD9  2FE7               	goto	l786
  5847     0FDA                     u2980:
  5848     0FDA                     l2569:
  5849     0FDA  1283               	bcf	3,5	;RP0=0, select bank0
  5850     0FDB  1303               	bcf	3,6	;RP1=0, select bank0
  5851     0FDC  01C0               	clrf	___fldiv@new_exp
  5852     0FDD  01C1               	clrf	___fldiv@new_exp+1
  5853     0FDE                     l2571:
  5854     0FDE  3000               	movlw	0
  5855     0FDF  00B5               	movwf	___fldiv@b+3
  5856     0FE0  3000               	movlw	0
  5857     0FE1  00B4               	movwf	___fldiv@b+2
  5858     0FE2  3000               	movlw	0
  5859     0FE3  00B3               	movwf	___fldiv@b+1
  5860     0FE4  3000               	movlw	0
  5861     0FE5  00B2               	movwf	___fldiv@b
  5862     0FE6                     l2573:
  5863     0FE6  01BF               	clrf	___fldiv@sign
  5864     0FE7                     l786:
  5865     0FE7  1283               	bcf	3,5	;RP0=0, select bank0
  5866     0FE8  1303               	bcf	3,6	;RP1=0, select bank0
  5867     0FE9  0840               	movf	___fldiv@new_exp,w
  5868     0FEA  00C6               	movwf	___fldiv@bexp
  5869     0FEB                     l2575:
  5870     0FEB  1C46               	btfss	___fldiv@bexp,0
  5871     0FEC  2FEE               	goto	u2991
  5872     0FED  2FEF               	goto	u2990
  5873     0FEE                     u2991:
  5874     0FEE  2FF1               	goto	l2579
  5875     0FEF                     u2990:
  5876     0FEF                     l2577:
  5877     0FEF  17B4               	bsf	___fldiv@b+2,7
  5878     0FF0  2FF5               	goto	l788
  5879     0FF1                     l2579:
  5880     0FF1  307F               	movlw	127
  5881     0FF2  00B6               	movwf	??___fldiv
  5882     0FF3  0836               	movf	??___fldiv,w
  5883     0FF4  05B4               	andwf	___fldiv@b+2,f
  5884     0FF5                     l788:
  5885     0FF5  0846               	movf	___fldiv@bexp,w
  5886     0FF6  00B6               	movwf	??___fldiv
  5887     0FF7  1003               	clrc
  5888     0FF8  0C36               	rrf	??___fldiv,w
  5889     0FF9  00B5               	movwf	___fldiv@b+3
  5890     0FFA  083F               	movf	___fldiv@sign,w
  5891     0FFB  00B6               	movwf	??___fldiv
  5892     0FFC  0836               	movf	??___fldiv,w
  5893     0FFD  04B5               	iorwf	___fldiv@b+3,f
  5894     0FFE  2E9B               	goto	l2487
  5895     0FFF                     l766:
  5896     0FFF  0008               	return
  5897     1000                     __end_of___fldiv:
  5898                           
  5899                           	psect	text20
  5900     036E                     __ptext20:	
  5901 ;; *************** function ___fladd *****************
  5902 ;; Defined at:
  5903 ;;		line 10 in file "C:\Program Files\Microchip\xc8\v2.40\pic\sources\c90\common\sprcadd.c"
  5904 ;; Parameters:    Size  Location     Type
  5905 ;;  b               4   66[BANK0 ] unsigned char 
  5906 ;;  a               4   70[BANK0 ] unsigned char 
  5907 ;; Auto vars:     Size  Location     Type
  5908 ;;  grs             1   77[BANK0 ] unsigned char 
  5909 ;;  bexp            1   76[BANK0 ] unsigned char 
  5910 ;;  aexp            1   75[BANK0 ] unsigned char 
  5911 ;;  signs           1   74[BANK0 ] unsigned char 
  5912 ;; Return value:  Size  Location     Type
  5913 ;;                  4   66[BANK0 ] unsigned char 
  5914 ;; Registers used:
  5915 ;;		wreg, status,2, status,0, btemp+1
  5916 ;; Tracked objects:
  5917 ;;		On entry : 0/0
  5918 ;;		On exit  : 0/0
  5919 ;;		Unchanged: 0/0
  5920 ;; Data sizes:     COMMON   BANK0   BANK1   BANK3   BANK2
  5921 ;;      Params:         0       8       0       0       0
  5922 ;;      Locals:         0       4       0       0       0
  5923 ;;      Temps:          0       0       8       0       0
  5924 ;;      Totals:         0      12       8       0       0
  5925 ;;Total ram usage:       20 bytes
  5926 ;; Hardware stack levels used: 1
  5927 ;; Hardware stack levels required when called: 2
  5928 ;; This function calls:
  5929 ;;		Nothing
  5930 ;; This function is called by:
  5931 ;;		_map
  5932 ;; This function uses a non-reentrant model
  5933 ;;
  5934                           
  5935     036E                     ___fladd:	
  5936                           ;psect for function ___fladd
  5937                           
  5938     036E                     l2249:	
  5939                           ;incstack = 0
  5940                           ; Regs used in ___fladd: [wreg+status,2+status,0+btemp+1]
  5941                           
  5942     036E  1283               	bcf	3,5	;RP0=0, select bank0
  5943     036F  1303               	bcf	3,6	;RP1=0, select bank0
  5944     0370  0865               	movf	___fladd@b+3,w
  5945     0371  3980               	andlw	128
  5946     0372  00EA               	movwf	___fladd@signs
  5947     0373                     l2251:
  5948     0373  0865               	movf	___fladd@b+3,w
  5949     0374  1683               	bsf	3,5	;RP0=1, select bank1
  5950     0375  1303               	bcf	3,6	;RP1=0, select bank1
  5951     0376  00A0               	movwf	??___fladd^(0+128)
  5952     0377  0720               	addwf	??___fladd^(0+128),w
  5953     0378  1283               	bcf	3,5	;RP0=0, select bank0
  5954     0379  1303               	bcf	3,6	;RP1=0, select bank0
  5955     037A  00EC               	movwf	___fladd@bexp
  5956     037B                     l2253:
  5957     037B  1FE4               	btfss	___fladd@b+2,7
  5958     037C  2B7E               	goto	u2251
  5959     037D  2B7F               	goto	u2250
  5960     037E                     u2251:
  5961     037E  2B80               	goto	l2257
  5962     037F                     u2250:
  5963     037F                     l2255:
  5964     037F  146C               	bsf	___fladd@bexp,0
  5965     0380                     l2257:
  5966     0380  086C               	movf	___fladd@bexp,w
  5967     0381  1903               	btfsc	3,2
  5968     0382  2B84               	goto	u2261
  5969     0383  2B85               	goto	u2260
  5970     0384                     u2261:
  5971     0384  2B95               	goto	l2267
  5972     0385                     u2260:
  5973     0385                     l2259:
  5974     0385  0A6C               	incf	___fladd@bexp,w
  5975     0386  1D03               	btfss	3,2
  5976     0387  2B89               	goto	u2271
  5977     0388  2B8A               	goto	u2270
  5978     0389                     u2271:
  5979     0389  2B92               	goto	l2263
  5980     038A                     u2270:
  5981     038A                     l2261:
  5982     038A  3000               	movlw	0
  5983     038B  00E5               	movwf	___fladd@b+3
  5984     038C  3000               	movlw	0
  5985     038D  00E4               	movwf	___fladd@b+2
  5986     038E  3000               	movlw	0
  5987     038F  00E3               	movwf	___fladd@b+1
  5988     0390  3000               	movlw	0
  5989     0391  00E2               	movwf	___fladd@b
  5990     0392                     l2263:
  5991     0392  17E4               	bsf	___fladd@b+2,7
  5992     0393                     l2265:
  5993     0393  01E5               	clrf	___fladd@b+3
  5994     0394  2B9D               	goto	l2269
  5995     0395                     l2267:
  5996     0395  3000               	movlw	0
  5997     0396  00E5               	movwf	___fladd@b+3
  5998     0397  3000               	movlw	0
  5999     0398  00E4               	movwf	___fladd@b+2
  6000     0399  3000               	movlw	0
  6001     039A  00E3               	movwf	___fladd@b+1
  6002     039B  3000               	movlw	0
  6003     039C  00E2               	movwf	___fladd@b
  6004     039D                     l2269:
  6005     039D  0869               	movf	___fladd@a+3,w
  6006     039E  3980               	andlw	128
  6007     039F  00EB               	movwf	___fladd@aexp
  6008     03A0                     l2271:
  6009     03A0  086B               	movf	___fladd@aexp,w
  6010     03A1  066A               	xorwf	___fladd@signs,w
  6011     03A2  1903               	skipnz
  6012     03A3  2BA5               	goto	u2281
  6013     03A4  2BA6               	goto	u2280
  6014     03A5                     u2281:
  6015     03A5  2BA7               	goto	l2275
  6016     03A6                     u2280:
  6017     03A6                     l2273:
  6018     03A6  176A               	bsf	___fladd@signs,6
  6019     03A7                     l2275:
  6020     03A7  0869               	movf	___fladd@a+3,w
  6021     03A8  1683               	bsf	3,5	;RP0=1, select bank1
  6022     03A9  1303               	bcf	3,6	;RP1=0, select bank1
  6023     03AA  00A0               	movwf	??___fladd^(0+128)
  6024     03AB  0720               	addwf	??___fladd^(0+128),w
  6025     03AC  1283               	bcf	3,5	;RP0=0, select bank0
  6026     03AD  1303               	bcf	3,6	;RP1=0, select bank0
  6027     03AE  00EB               	movwf	___fladd@aexp
  6028     03AF                     l2277:
  6029     03AF  1FE8               	btfss	___fladd@a+2,7
  6030     03B0  2BB2               	goto	u2291
  6031     03B1  2BB3               	goto	u2290
  6032     03B2                     u2291:
  6033     03B2  2BB4               	goto	l2281
  6034     03B3                     u2290:
  6035     03B3                     l2279:
  6036     03B3  146B               	bsf	___fladd@aexp,0
  6037     03B4                     l2281:
  6038     03B4  086B               	movf	___fladd@aexp,w
  6039     03B5  1903               	btfsc	3,2
  6040     03B6  2BB8               	goto	u2301
  6041     03B7  2BB9               	goto	u2300
  6042     03B8                     u2301:
  6043     03B8  2BC9               	goto	l2291
  6044     03B9                     u2300:
  6045     03B9                     l2283:
  6046     03B9  0A6B               	incf	___fladd@aexp,w
  6047     03BA  1D03               	btfss	3,2
  6048     03BB  2BBD               	goto	u2311
  6049     03BC  2BBE               	goto	u2310
  6050     03BD                     u2311:
  6051     03BD  2BC6               	goto	l2287
  6052     03BE                     u2310:
  6053     03BE                     l2285:
  6054     03BE  3000               	movlw	0
  6055     03BF  00E9               	movwf	___fladd@a+3
  6056     03C0  3000               	movlw	0
  6057     03C1  00E8               	movwf	___fladd@a+2
  6058     03C2  3000               	movlw	0
  6059     03C3  00E7               	movwf	___fladd@a+1
  6060     03C4  3000               	movlw	0
  6061     03C5  00E6               	movwf	___fladd@a
  6062     03C6                     l2287:
  6063     03C6  17E8               	bsf	___fladd@a+2,7
  6064     03C7                     l2289:
  6065     03C7  01E9               	clrf	___fladd@a+3
  6066     03C8  2BD1               	goto	l708
  6067     03C9                     l2291:
  6068     03C9  3000               	movlw	0
  6069     03CA  00E9               	movwf	___fladd@a+3
  6070     03CB  3000               	movlw	0
  6071     03CC  00E8               	movwf	___fladd@a+2
  6072     03CD  3000               	movlw	0
  6073     03CE  00E7               	movwf	___fladd@a+1
  6074     03CF  3000               	movlw	0
  6075     03D0  00E6               	movwf	___fladd@a
  6076     03D1                     l708:
  6077     03D1  086C               	movf	___fladd@bexp,w
  6078     03D2  026B               	subwf	___fladd@aexp,w
  6079     03D3  1803               	skipnc
  6080     03D4  2BD6               	goto	u2321
  6081     03D5  2BD7               	goto	u2320
  6082     03D6                     u2321:
  6083     03D6  2C01               	goto	l2327
  6084     03D7                     u2320:
  6085     03D7                     l2293:
  6086     03D7  1F6A               	btfss	___fladd@signs,6
  6087     03D8  2BDA               	goto	u2331
  6088     03D9  2BDB               	goto	u2330
  6089     03DA                     u2331:
  6090     03DA  2BE3               	goto	l2297
  6091     03DB                     u2330:
  6092     03DB                     l2295:
  6093     03DB  3080               	movlw	128
  6094     03DC  1683               	bsf	3,5	;RP0=1, select bank1
  6095     03DD  1303               	bcf	3,6	;RP1=0, select bank1
  6096     03DE  00A0               	movwf	??___fladd^(0+128)
  6097     03DF  0820               	movf	??___fladd^(0+128),w
  6098     03E0  1283               	bcf	3,5	;RP0=0, select bank0
  6099     03E1  1303               	bcf	3,6	;RP1=0, select bank0
  6100     03E2  06EA               	xorwf	___fladd@signs,f
  6101     03E3                     l2297:
  6102     03E3  086C               	movf	___fladd@bexp,w
  6103     03E4  00ED               	movwf	___fladd@grs
  6104     03E5                     l2299:
  6105     03E5  086B               	movf	___fladd@aexp,w
  6106     03E6  00EC               	movwf	___fladd@bexp
  6107     03E7                     l2301:
  6108     03E7  086D               	movf	___fladd@grs,w
  6109     03E8  00EB               	movwf	___fladd@aexp
  6110     03E9                     l2303:
  6111     03E9  0862               	movf	___fladd@b,w
  6112     03EA  00ED               	movwf	___fladd@grs
  6113     03EB                     l2305:
  6114     03EB  0866               	movf	___fladd@a,w
  6115     03EC  00E2               	movwf	___fladd@b
  6116     03ED                     l2307:
  6117     03ED  086D               	movf	___fladd@grs,w
  6118     03EE  00E6               	movwf	___fladd@a
  6119     03EF                     l2309:
  6120     03EF  0863               	movf	___fladd@b+1,w
  6121     03F0  00ED               	movwf	___fladd@grs
  6122     03F1                     l2311:
  6123     03F1  0867               	movf	___fladd@a+1,w
  6124     03F2  00E3               	movwf	___fladd@b+1
  6125     03F3                     l2313:
  6126     03F3  086D               	movf	___fladd@grs,w
  6127     03F4  00E7               	movwf	___fladd@a+1
  6128     03F5                     l2315:
  6129     03F5  0864               	movf	___fladd@b+2,w
  6130     03F6  00ED               	movwf	___fladd@grs
  6131     03F7                     l2317:
  6132     03F7  0868               	movf	___fladd@a+2,w
  6133     03F8  00E4               	movwf	___fladd@b+2
  6134     03F9                     l2319:
  6135     03F9  086D               	movf	___fladd@grs,w
  6136     03FA  00E8               	movwf	___fladd@a+2
  6137     03FB                     l2321:
  6138     03FB  0865               	movf	___fladd@b+3,w
  6139     03FC  00ED               	movwf	___fladd@grs
  6140     03FD                     l2323:
  6141     03FD  0869               	movf	___fladd@a+3,w
  6142     03FE  00E5               	movwf	___fladd@b+3
  6143     03FF                     l2325:
  6144     03FF  086D               	movf	___fladd@grs,w
  6145     0400  00E9               	movwf	___fladd@a+3
  6146     0401                     l2327:
  6147     0401  01ED               	clrf	___fladd@grs
  6148     0402                     l2329:
  6149     0402  086B               	movf	___fladd@aexp,w
  6150     0403  1683               	bsf	3,5	;RP0=1, select bank1
  6151     0404  1303               	bcf	3,6	;RP1=0, select bank1
  6152     0405  00A0               	movwf	??___fladd^(0+128)
  6153     0406  01A1               	clrf	(??___fladd^(0+128)+1)
  6154     0407  0821               	movf	(??___fladd+1)^(0+128),w
  6155     0408  00A3               	movwf	((??___fladd+2)^(0+128)+1)
  6156     0409  1283               	bcf	3,5	;RP0=0, select bank0
  6157     040A  1303               	bcf	3,6	;RP1=0, select bank0
  6158     040B  086C               	movf	___fladd@bexp,w
  6159     040C  1683               	bsf	3,5	;RP0=1, select bank1
  6160     040D  1303               	bcf	3,6	;RP1=0, select bank1
  6161     040E  0220               	subwf	??___fladd^(0+128),w
  6162     040F  00A2               	movwf	(??___fladd+2)^(0+128)
  6163     0410  1C03               	skipc
  6164     0411  03A3               	decf	((??___fladd+2)^(0+128)+1),f
  6165     0412  0823               	movf	(??___fladd+3)^(0+128),w
  6166     0413  3A80               	xorlw	128
  6167     0414  00FF               	movwf	btemp+1
  6168     0415  3080               	movlw	128
  6169     0416  027F               	subwf	btemp+1,w
  6170     0417  1D03               	skipz
  6171     0418  2C1B               	goto	u2345
  6172     0419  301A               	movlw	26
  6173     041A  0222               	subwf	(??___fladd+2)^(0+128),w
  6174     041B                     u2345:
  6175     041B  1C03               	skipc
  6176     041C  2C1E               	goto	u2341
  6177     041D  2C1F               	goto	u2340
  6178     041E                     u2341:
  6179     041E  2C62               	goto	l2345
  6180     041F                     u2340:
  6181     041F                     l2331:
  6182     041F  1283               	bcf	3,5	;RP0=0, select bank0
  6183     0420  1303               	bcf	3,6	;RP1=0, select bank0
  6184     0421  0865               	movf	___fladd@b+3,w
  6185     0422  0464               	iorwf	___fladd@b+2,w
  6186     0423  0463               	iorwf	___fladd@b+1,w
  6187     0424  0462               	iorwf	___fladd@b,w
  6188     0425  1D03               	skipz
  6189     0426  2C28               	goto	u2351
  6190     0427  2C2A               	goto	u2350
  6191     0428                     u2351:
  6192     0428  3001               	movlw	1
  6193     0429  2C2B               	goto	u2360
  6194     042A                     u2350:
  6195     042A  3000               	movlw	0
  6196     042B                     u2360:
  6197     042B  00ED               	movwf	___fladd@grs
  6198     042C  3000               	movlw	0
  6199     042D  00E5               	movwf	___fladd@b+3
  6200     042E  3000               	movlw	0
  6201     042F  00E4               	movwf	___fladd@b+2
  6202     0430  3000               	movlw	0
  6203     0431  00E3               	movwf	___fladd@b+1
  6204     0432  3000               	movlw	0
  6205     0433  00E2               	movwf	___fladd@b
  6206     0434  086B               	movf	___fladd@aexp,w
  6207     0435  00EC               	movwf	___fladd@bexp
  6208     0436  2C6A               	goto	l712
  6209     0437                     l714:
  6210     0437  1C6D               	btfss	___fladd@grs,0
  6211     0438  2C3A               	goto	u2371
  6212     0439  2C3B               	goto	u2370
  6213     043A                     u2371:
  6214     043A  2C46               	goto	l2335
  6215     043B                     u2370:
  6216     043B                     l2333:
  6217     043B  086D               	movf	___fladd@grs,w
  6218     043C  1683               	bsf	3,5	;RP0=1, select bank1
  6219     043D  1303               	bcf	3,6	;RP1=0, select bank1
  6220     043E  00A0               	movwf	??___fladd^(0+128)
  6221     043F  1003               	clrc
  6222     0440  0C20               	rrf	??___fladd^(0+128),w
  6223     0441  3801               	iorlw	1
  6224     0442  1283               	bcf	3,5	;RP0=0, select bank0
  6225     0443  1303               	bcf	3,6	;RP1=0, select bank0
  6226     0444  00ED               	movwf	___fladd@grs
  6227     0445  2C48               	goto	l2337
  6228     0446                     l2335:
  6229     0446  1003               	clrc
  6230     0447  0CED               	rrf	___fladd@grs,f
  6231     0448                     l2337:
  6232     0448  1C62               	btfss	___fladd@b,0
  6233     0449  2C4B               	goto	u2381
  6234     044A  2C4C               	goto	u2380
  6235     044B                     u2381:
  6236     044B  2C4D               	goto	l2341
  6237     044C                     u2380:
  6238     044C                     l2339:
  6239     044C  17ED               	bsf	___fladd@grs,7
  6240     044D                     l2341:
  6241     044D  3001               	movlw	1
  6242     044E  1683               	bsf	3,5	;RP0=1, select bank1
  6243     044F  1303               	bcf	3,6	;RP1=0, select bank1
  6244     0450  00A0               	movwf	??___fladd^(0+128)
  6245     0451                     u2395:
  6246     0451  1283               	bcf	3,5	;RP0=0, select bank0
  6247     0452  1303               	bcf	3,6	;RP1=0, select bank0
  6248     0453  0D65               	rlf	___fladd@b+3,w
  6249     0454  0CE5               	rrf	___fladd@b+3,f
  6250     0455  0CE4               	rrf	___fladd@b+2,f
  6251     0456  0CE3               	rrf	___fladd@b+1,f
  6252     0457  0CE2               	rrf	___fladd@b,f
  6253     0458  1683               	bsf	3,5	;RP0=1, select bank1
  6254     0459  1303               	bcf	3,6	;RP1=0, select bank1
  6255     045A  0BA0               	decfsz	(??___fladd^(0+128))& (0+127),f
  6256     045B  2C51               	goto	u2395
  6257     045C                     l2343:
  6258     045C  3001               	movlw	1
  6259     045D  00A0               	movwf	??___fladd^(0+128)
  6260     045E  0820               	movf	??___fladd^(0+128),w
  6261     045F  1283               	bcf	3,5	;RP0=0, select bank0
  6262     0460  1303               	bcf	3,6	;RP1=0, select bank0
  6263     0461  07EC               	addwf	___fladd@bexp,f
  6264     0462                     l2345:
  6265     0462  1283               	bcf	3,5	;RP0=0, select bank0
  6266     0463  1303               	bcf	3,6	;RP1=0, select bank0
  6267     0464  086B               	movf	___fladd@aexp,w
  6268     0465  026C               	subwf	___fladd@bexp,w
  6269     0466  1C03               	skipc
  6270     0467  2C69               	goto	u2401
  6271     0468  2C6A               	goto	u2400
  6272     0469                     u2401:
  6273     0469  2C37               	goto	l714
  6274     046A                     u2400:
  6275     046A                     l712:
  6276     046A  1B6A               	btfsc	___fladd@signs,6
  6277     046B  2C6D               	goto	u2411
  6278     046C  2C6E               	goto	u2410
  6279     046D                     u2411:
  6280     046D  2CC3               	goto	l2371
  6281     046E                     u2410:
  6282     046E                     l2347:
  6283     046E  086C               	movf	___fladd@bexp,w
  6284     046F  1D03               	btfss	3,2
  6285     0470  2C72               	goto	u2421
  6286     0471  2C73               	goto	u2420
  6287     0472                     u2421:
  6288     0472  2C7C               	goto	l2353
  6289     0473                     u2420:
  6290     0473                     l2349:
  6291     0473  3000               	movlw	0
  6292     0474  00E5               	movwf	?___fladd+3
  6293     0475  3000               	movlw	0
  6294     0476  00E4               	movwf	?___fladd+2
  6295     0477  3000               	movlw	0
  6296     0478  00E3               	movwf	?___fladd+1
  6297     0479  3000               	movlw	0
  6298     047A  00E2               	movwf	?___fladd
  6299     047B  2E57               	goto	l721
  6300     047C                     l2353:
  6301     047C  0866               	movf	___fladd@a,w
  6302     047D  07E2               	addwf	___fladd@b,f
  6303     047E  0867               	movf	___fladd@a+1,w
  6304     047F  1103               	clrz
  6305     0480  1803               	skipnc
  6306     0481  3E01               	addlw	1
  6307     0482  1903               	skipnz
  6308     0483  2C85               	goto	u2431
  6309     0484  07E3               	addwf	___fladd@b+1,f
  6310     0485                     u2431:
  6311     0485  0868               	movf	___fladd@a+2,w
  6312     0486  1103               	clrz
  6313     0487  1803               	skipnc
  6314     0488  3E01               	addlw	1
  6315     0489  1903               	skipnz
  6316     048A  2C8C               	goto	u2432
  6317     048B  07E4               	addwf	___fladd@b+2,f
  6318     048C                     u2432:
  6319     048C  0869               	movf	___fladd@a+3,w
  6320     048D  1103               	clrz
  6321     048E  1803               	skipnc
  6322     048F  3E01               	addlw	1
  6323     0490  1903               	skipnz
  6324     0491  2C93               	goto	u2433
  6325     0492  07E5               	addwf	___fladd@b+3,f
  6326     0493                     u2433:
  6327     0493                     l2355:
  6328     0493  1C65               	btfss	___fladd@b+3,0
  6329     0494  2C96               	goto	u2441
  6330     0495  2C97               	goto	u2440
  6331     0496                     u2441:
  6332     0496  2DB7               	goto	l2405
  6333     0497                     u2440:
  6334     0497                     l2357:
  6335     0497  1C6D               	btfss	___fladd@grs,0
  6336     0498  2C9A               	goto	u2451
  6337     0499  2C9B               	goto	u2450
  6338     049A                     u2451:
  6339     049A  2CA6               	goto	l2361
  6340     049B                     u2450:
  6341     049B                     l2359:
  6342     049B  086D               	movf	___fladd@grs,w
  6343     049C  1683               	bsf	3,5	;RP0=1, select bank1
  6344     049D  1303               	bcf	3,6	;RP1=0, select bank1
  6345     049E  00A0               	movwf	??___fladd^(0+128)
  6346     049F  1003               	clrc
  6347     04A0  0C20               	rrf	??___fladd^(0+128),w
  6348     04A1  3801               	iorlw	1
  6349     04A2  1283               	bcf	3,5	;RP0=0, select bank0
  6350     04A3  1303               	bcf	3,6	;RP1=0, select bank0
  6351     04A4  00ED               	movwf	___fladd@grs
  6352     04A5  2CA8               	goto	l2363
  6353     04A6                     l2361:
  6354     04A6  1003               	clrc
  6355     04A7  0CED               	rrf	___fladd@grs,f
  6356     04A8                     l2363:
  6357     04A8  1C62               	btfss	___fladd@b,0
  6358     04A9  2CAB               	goto	u2461
  6359     04AA  2CAC               	goto	u2460
  6360     04AB                     u2461:
  6361     04AB  2CAD               	goto	l2367
  6362     04AC                     u2460:
  6363     04AC                     l2365:
  6364     04AC  17ED               	bsf	___fladd@grs,7
  6365     04AD                     l2367:
  6366     04AD  3001               	movlw	1
  6367     04AE  1683               	bsf	3,5	;RP0=1, select bank1
  6368     04AF  1303               	bcf	3,6	;RP1=0, select bank1
  6369     04B0  00A0               	movwf	??___fladd^(0+128)
  6370     04B1                     u2475:
  6371     04B1  1283               	bcf	3,5	;RP0=0, select bank0
  6372     04B2  1303               	bcf	3,6	;RP1=0, select bank0
  6373     04B3  0D65               	rlf	___fladd@b+3,w
  6374     04B4  0CE5               	rrf	___fladd@b+3,f
  6375     04B5  0CE4               	rrf	___fladd@b+2,f
  6376     04B6  0CE3               	rrf	___fladd@b+1,f
  6377     04B7  0CE2               	rrf	___fladd@b,f
  6378     04B8  1683               	bsf	3,5	;RP0=1, select bank1
  6379     04B9  1303               	bcf	3,6	;RP1=0, select bank1
  6380     04BA  0BA0               	decfsz	(??___fladd^(0+128))& (0+127),f
  6381     04BB  2CB1               	goto	u2475
  6382     04BC                     l2369:
  6383     04BC  3001               	movlw	1
  6384     04BD  00A0               	movwf	??___fladd^(0+128)
  6385     04BE  0820               	movf	??___fladd^(0+128),w
  6386     04BF  1283               	bcf	3,5	;RP0=0, select bank0
  6387     04C0  1303               	bcf	3,6	;RP1=0, select bank0
  6388     04C1  07EC               	addwf	___fladd@bexp,f
  6389     04C2  2DB7               	goto	l2405
  6390     04C3                     l2371:
  6391     04C3  0865               	movf	___fladd@b+3,w
  6392     04C4  3A80               	xorlw	128
  6393     04C5  00FF               	movwf	btemp+1
  6394     04C6  0869               	movf	___fladd@a+3,w
  6395     04C7  3A80               	xorlw	128
  6396     04C8  027F               	subwf	btemp+1,w
  6397     04C9  1D03               	skipz
  6398     04CA  2CD5               	goto	u2483
  6399     04CB  0868               	movf	___fladd@a+2,w
  6400     04CC  0264               	subwf	___fladd@b+2,w
  6401     04CD  1D03               	skipz
  6402     04CE  2CD5               	goto	u2483
  6403     04CF  0867               	movf	___fladd@a+1,w
  6404     04D0  0263               	subwf	___fladd@b+1,w
  6405     04D1  1D03               	skipz
  6406     04D2  2CD5               	goto	u2483
  6407     04D3  0866               	movf	___fladd@a,w
  6408     04D4  0262               	subwf	___fladd@b,w
  6409     04D5                     u2483:
  6410     04D5  1803               	skipnc
  6411     04D6  2CD8               	goto	u2481
  6412     04D7  2CD9               	goto	u2480
  6413     04D8                     u2481:
  6414     04D8  2D69               	goto	l2381
  6415     04D9                     u2480:
  6416     04D9                     l2373:
  6417     04D9  30FF               	movlw	255
  6418     04DA  1683               	bsf	3,5	;RP0=1, select bank1
  6419     04DB  1303               	bcf	3,6	;RP1=0, select bank1
  6420     04DC  00A0               	movwf	??___fladd^(0+128)
  6421     04DD  30FF               	movlw	255
  6422     04DE  00A1               	movwf	(??___fladd^(0+128)+1)
  6423     04DF  30FF               	movlw	255
  6424     04E0  00A2               	movwf	(??___fladd^(0+128)+2)
  6425     04E1  30FF               	movlw	255
  6426     04E2  00A3               	movwf	(??___fladd^(0+128)+3)
  6427     04E3  1283               	bcf	3,5	;RP0=0, select bank0
  6428     04E4  1303               	bcf	3,6	;RP1=0, select bank0
  6429     04E5  0866               	movf	___fladd@a,w
  6430     04E6  1683               	bsf	3,5	;RP0=1, select bank1
  6431     04E7  1303               	bcf	3,6	;RP1=0, select bank1
  6432     04E8  00A4               	movwf	(??___fladd+4)^(0+128)
  6433     04E9  1283               	bcf	3,5	;RP0=0, select bank0
  6434     04EA  1303               	bcf	3,6	;RP1=0, select bank0
  6435     04EB  0867               	movf	___fladd@a+1,w
  6436     04EC  1683               	bsf	3,5	;RP0=1, select bank1
  6437     04ED  1303               	bcf	3,6	;RP1=0, select bank1
  6438     04EE  00A5               	movwf	((??___fladd+4)^(0+128)+1)
  6439     04EF  1283               	bcf	3,5	;RP0=0, select bank0
  6440     04F0  1303               	bcf	3,6	;RP1=0, select bank0
  6441     04F1  0868               	movf	___fladd@a+2,w
  6442     04F2  1683               	bsf	3,5	;RP0=1, select bank1
  6443     04F3  1303               	bcf	3,6	;RP1=0, select bank1
  6444     04F4  00A6               	movwf	((??___fladd+4)^(0+128)+2)
  6445     04F5  1283               	bcf	3,5	;RP0=0, select bank0
  6446     04F6  1303               	bcf	3,6	;RP1=0, select bank0
  6447     04F7  0869               	movf	___fladd@a+3,w
  6448     04F8  1683               	bsf	3,5	;RP0=1, select bank1
  6449     04F9  1303               	bcf	3,6	;RP1=0, select bank1
  6450     04FA  00A7               	movwf	((??___fladd+4)^(0+128)+3)
  6451     04FB  1283               	bcf	3,5	;RP0=0, select bank0
  6452     04FC  1303               	bcf	3,6	;RP1=0, select bank0
  6453     04FD  0862               	movf	___fladd@b,w
  6454     04FE  1683               	bsf	3,5	;RP0=1, select bank1
  6455     04FF  1303               	bcf	3,6	;RP1=0, select bank1
  6456     0500  02A4               	subwf	(??___fladd+4)^(0+128),f
  6457     0501  1283               	bcf	3,5	;RP0=0, select bank0
  6458     0502  1303               	bcf	3,6	;RP1=0, select bank0
  6459     0503  0863               	movf	___fladd@b+1,w
  6460     0504  1C03               	skipc
  6461     0505  0F63               	incfsz	___fladd@b+1,w
  6462     0506  2D08               	goto	u2491
  6463     0507  2D0B               	goto	u2492
  6464     0508                     u2491:
  6465     0508  1683               	bsf	3,5	;RP0=1, select bank1
  6466     0509  1303               	bcf	3,6	;RP1=0, select bank1
  6467     050A  02A5               	subwf	((??___fladd+4)^(0+128)+1),f
  6468     050B                     u2492:
  6469     050B  1283               	bcf	3,5	;RP0=0, select bank0
  6470     050C  1303               	bcf	3,6	;RP1=0, select bank0
  6471     050D  0864               	movf	___fladd@b+2,w
  6472     050E  1C03               	skipc
  6473     050F  0F64               	incfsz	___fladd@b+2,w
  6474     0510  2D12               	goto	u2493
  6475     0511  2D15               	goto	u2494
  6476     0512                     u2493:
  6477     0512  1683               	bsf	3,5	;RP0=1, select bank1
  6478     0513  1303               	bcf	3,6	;RP1=0, select bank1
  6479     0514  02A6               	subwf	((??___fladd+4)^(0+128)+2),f
  6480     0515                     u2494:
  6481     0515  1283               	bcf	3,5	;RP0=0, select bank0
  6482     0516  1303               	bcf	3,6	;RP1=0, select bank0
  6483     0517  0865               	movf	___fladd@b+3,w
  6484     0518  1C03               	skipc
  6485     0519  0F65               	incfsz	___fladd@b+3,w
  6486     051A  2D1C               	goto	u2495
  6487     051B  2D1F               	goto	u2496
  6488     051C                     u2495:
  6489     051C  1683               	bsf	3,5	;RP0=1, select bank1
  6490     051D  1303               	bcf	3,6	;RP1=0, select bank1
  6491     051E  02A7               	subwf	((??___fladd+4)^(0+128)+3),f
  6492     051F                     u2496:
  6493     051F  1283               	bcf	3,5	;RP0=0, select bank0
  6494     0520  1303               	bcf	3,6	;RP1=0, select bank0
  6495     0521  1683               	bsf	3,5	;RP0=1, select bank1
  6496     0522  1303               	bcf	3,6	;RP1=0, select bank1
  6497     0523  0824               	movf	(??___fladd+4)^(0+128),w
  6498     0524  07A0               	addwf	??___fladd^(0+128),f
  6499     0525  0825               	movf	(??___fladd+5)^(0+128),w
  6500     0526  1803               	skipnc
  6501     0527  0F25               	incfsz	(??___fladd+5)^(0+128),w
  6502     0528  2D2A               	goto	u2500
  6503     0529  2D2B               	goto	u2501
  6504     052A                     u2500:
  6505     052A  07A1               	addwf	(??___fladd^(0+128)+1),f
  6506     052B                     u2501:
  6507     052B  0826               	movf	(??___fladd+6)^(0+128),w
  6508     052C  1803               	skipnc
  6509     052D  0F26               	incfsz	(??___fladd+6)^(0+128),w
  6510     052E  2D30               	goto	u2502
  6511     052F  2D31               	goto	u2503
  6512     0530                     u2502:
  6513     0530  07A2               	addwf	(??___fladd^(0+128)+2),f
  6514     0531                     u2503:
  6515     0531  0827               	movf	(??___fladd+7)^(0+128),w
  6516     0532  1803               	skipnc
  6517     0533  0A27               	incf	(??___fladd+7)^(0+128),w
  6518     0534  07A3               	addwf	(??___fladd^(0+128)+3),f
  6519     0535  0823               	movf	(??___fladd+3)^(0+128),w
  6520     0536  1283               	bcf	3,5	;RP0=0, select bank0
  6521     0537  1303               	bcf	3,6	;RP1=0, select bank0
  6522     0538  00E5               	movwf	___fladd@b+3
  6523     0539  1683               	bsf	3,5	;RP0=1, select bank1
  6524     053A  1303               	bcf	3,6	;RP1=0, select bank1
  6525     053B  0822               	movf	(??___fladd+2)^(0+128),w
  6526     053C  1283               	bcf	3,5	;RP0=0, select bank0
  6527     053D  1303               	bcf	3,6	;RP1=0, select bank0
  6528     053E  00E4               	movwf	___fladd@b+2
  6529     053F  1683               	bsf	3,5	;RP0=1, select bank1
  6530     0540  1303               	bcf	3,6	;RP1=0, select bank1
  6531     0541  0821               	movf	(??___fladd+1)^(0+128),w
  6532     0542  1283               	bcf	3,5	;RP0=0, select bank0
  6533     0543  1303               	bcf	3,6	;RP1=0, select bank0
  6534     0544  00E3               	movwf	___fladd@b+1
  6535     0545  1683               	bsf	3,5	;RP0=1, select bank1
  6536     0546  1303               	bcf	3,6	;RP1=0, select bank1
  6537     0547  0820               	movf	??___fladd^(0+128),w
  6538     0548  1283               	bcf	3,5	;RP0=0, select bank0
  6539     0549  1303               	bcf	3,6	;RP1=0, select bank0
  6540     054A  00E2               	movwf	___fladd@b
  6541     054B                     l2375:
  6542     054B  3080               	movlw	128
  6543     054C  1683               	bsf	3,5	;RP0=1, select bank1
  6544     054D  1303               	bcf	3,6	;RP1=0, select bank1
  6545     054E  00A0               	movwf	??___fladd^(0+128)
  6546     054F  0820               	movf	??___fladd^(0+128),w
  6547     0550  1283               	bcf	3,5	;RP0=0, select bank0
  6548     0551  1303               	bcf	3,6	;RP1=0, select bank0
  6549     0552  06EA               	xorwf	___fladd@signs,f
  6550     0553  09ED               	comf	___fladd@grs,f
  6551     0554  0AED               	incf	___fladd@grs,f
  6552     0555                     l2377:
  6553     0555  086D               	movf	___fladd@grs,w
  6554     0556  1D03               	btfss	3,2
  6555     0557  2D59               	goto	u2511
  6556     0558  2D5A               	goto	u2510
  6557     0559                     u2511:
  6558     0559  2D77               	goto	l729
  6559     055A                     u2510:
  6560     055A                     l2379:
  6561     055A  3001               	movlw	1
  6562     055B  07E2               	addwf	___fladd@b,f
  6563     055C  3000               	movlw	0
  6564     055D  1803               	skipnc
  6565     055E  3001               	movlw	1
  6566     055F  07E3               	addwf	___fladd@b+1,f
  6567     0560  3000               	movlw	0
  6568     0561  1803               	skipnc
  6569     0562  3001               	movlw	1
  6570     0563  07E4               	addwf	___fladd@b+2,f
  6571     0564  3000               	movlw	0
  6572     0565  1803               	skipnc
  6573     0566  3001               	movlw	1
  6574     0567  07E5               	addwf	___fladd@b+3,f
  6575     0568  2D77               	goto	l729
  6576     0569                     l2381:
  6577     0569  0866               	movf	___fladd@a,w
  6578     056A  02E2               	subwf	___fladd@b,f
  6579     056B  0867               	movf	___fladd@a+1,w
  6580     056C  1C03               	skipc
  6581     056D  0F67               	incfsz	___fladd@a+1,w
  6582     056E  02E3               	subwf	___fladd@b+1,f
  6583     056F  0868               	movf	___fladd@a+2,w
  6584     0570  1C03               	skipc
  6585     0571  0F68               	incfsz	___fladd@a+2,w
  6586     0572  02E4               	subwf	___fladd@b+2,f
  6587     0573  0869               	movf	___fladd@a+3,w
  6588     0574  1C03               	skipc
  6589     0575  0F69               	incfsz	___fladd@a+3,w
  6590     0576  02E5               	subwf	___fladd@b+3,f
  6591     0577                     l729:
  6592     0577  0865               	movf	___fladd@b+3,w
  6593     0578  0464               	iorwf	___fladd@b+2,w
  6594     0579  0463               	iorwf	___fladd@b+1,w
  6595     057A  0462               	iorwf	___fladd@b,w
  6596     057B  1D03               	skipz
  6597     057C  2D7E               	goto	u2521
  6598     057D  2D7F               	goto	u2520
  6599     057E                     u2521:
  6600     057E  2DB3               	goto	l2403
  6601     057F                     u2520:
  6602     057F                     l2383:
  6603     057F  086D               	movf	___fladd@grs,w
  6604     0580  1D03               	btfss	3,2
  6605     0581  2D83               	goto	u2531
  6606     0582  2D84               	goto	u2530
  6607     0583                     u2531:
  6608     0583  2DB3               	goto	l2403
  6609     0584                     u2530:
  6610     0584                     l2385:
  6611     0584  3000               	movlw	0
  6612     0585  00E5               	movwf	?___fladd+3
  6613     0586  3000               	movlw	0
  6614     0587  00E4               	movwf	?___fladd+2
  6615     0588  3000               	movlw	0
  6616     0589  00E3               	movwf	?___fladd+1
  6617     058A  3000               	movlw	0
  6618     058B  00E2               	movwf	?___fladd
  6619     058C  2E57               	goto	l721
  6620     058D                     l2389:
  6621     058D  3001               	movlw	1
  6622     058E  1683               	bsf	3,5	;RP0=1, select bank1
  6623     058F  1303               	bcf	3,6	;RP1=0, select bank1
  6624     0590  00A0               	movwf	??___fladd^(0+128)
  6625     0591                     u2545:
  6626     0591  1003               	clrc
  6627     0592  1283               	bcf	3,5	;RP0=0, select bank0
  6628     0593  1303               	bcf	3,6	;RP1=0, select bank0
  6629     0594  0DE2               	rlf	___fladd@b,f
  6630     0595  0DE3               	rlf	___fladd@b+1,f
  6631     0596  0DE4               	rlf	___fladd@b+2,f
  6632     0597  0DE5               	rlf	___fladd@b+3,f
  6633     0598  1683               	bsf	3,5	;RP0=1, select bank1
  6634     0599  1303               	bcf	3,6	;RP1=0, select bank1
  6635     059A  0BA0               	decfsz	??___fladd^(0+128),f
  6636     059B  2D91               	goto	u2545
  6637     059C                     l2391:
  6638     059C  1283               	bcf	3,5	;RP0=0, select bank0
  6639     059D  1303               	bcf	3,6	;RP1=0, select bank0
  6640     059E  1FED               	btfss	___fladd@grs,7
  6641     059F  2DA1               	goto	u2551
  6642     05A0  2DA2               	goto	u2550
  6643     05A1                     u2551:
  6644     05A1  2DA3               	goto	l733
  6645     05A2                     u2550:
  6646     05A2                     l2393:
  6647     05A2  1462               	bsf	___fladd@b,0
  6648     05A3                     l733:
  6649     05A3  1C6D               	btfss	___fladd@grs,0
  6650     05A4  2DA6               	goto	u2561
  6651     05A5  2DA7               	goto	u2560
  6652     05A6                     u2561:
  6653     05A6  2DAA               	goto	l2397
  6654     05A7                     u2560:
  6655     05A7                     l2395:
  6656     05A7  1403               	setc
  6657     05A8  0DED               	rlf	___fladd@grs,f
  6658     05A9  2DAC               	goto	l2399
  6659     05AA                     l2397:
  6660     05AA  1003               	clrc
  6661     05AB  0DED               	rlf	___fladd@grs,f
  6662     05AC                     l2399:
  6663     05AC  086C               	movf	___fladd@bexp,w
  6664     05AD  1903               	btfsc	3,2
  6665     05AE  2DB0               	goto	u2571
  6666     05AF  2DB1               	goto	u2570
  6667     05B0                     u2571:
  6668     05B0  2DB3               	goto	l2403
  6669     05B1                     u2570:
  6670     05B1                     l2401:
  6671     05B1  3001               	movlw	1
  6672     05B2  02EC               	subwf	___fladd@bexp,f
  6673     05B3                     l2403:
  6674     05B3  1FE4               	btfss	___fladd@b+2,7
  6675     05B4  2DB6               	goto	u2581
  6676     05B5  2DB7               	goto	u2580
  6677     05B6                     u2581:
  6678     05B6  2D8D               	goto	l2389
  6679     05B7                     u2580:
  6680     05B7                     l2405:
  6681     05B7  01EB               	clrf	___fladd@aexp
  6682     05B8                     l2407:
  6683     05B8  1FED               	btfss	___fladd@grs,7
  6684     05B9  2DBB               	goto	u2591
  6685     05BA  2DBC               	goto	u2590
  6686     05BB                     u2591:
  6687     05BB  2DCA               	goto	l2415
  6688     05BC                     u2590:
  6689     05BC                     l2409:
  6690     05BC  086D               	movf	___fladd@grs,w
  6691     05BD  397F               	andlw	127
  6692     05BE  1903               	btfsc	3,2
  6693     05BF  2DC1               	goto	u2601
  6694     05C0  2DC2               	goto	u2600
  6695     05C1                     u2601:
  6696     05C1  2DC5               	goto	l739
  6697     05C2                     u2600:
  6698     05C2                     l2411:
  6699     05C2  01EB               	clrf	___fladd@aexp
  6700     05C3  0AEB               	incf	___fladd@aexp,f
  6701     05C4  2DCA               	goto	l2415
  6702     05C5                     l739:
  6703     05C5  1C62               	btfss	___fladd@b,0
  6704     05C6  2DC8               	goto	u2611
  6705     05C7  2DC9               	goto	u2610
  6706     05C8                     u2611:
  6707     05C8  2DCA               	goto	l2415
  6708     05C9                     u2610:
  6709     05C9  2DC2               	goto	l2411
  6710     05CA                     l2415:
  6711     05CA  086B               	movf	___fladd@aexp,w
  6712     05CB  1903               	btfsc	3,2
  6713     05CC  2DCE               	goto	u2621
  6714     05CD  2DCF               	goto	u2620
  6715     05CE                     u2621:
  6716     05CE  2E23               	goto	l742
  6717     05CF                     u2620:
  6718     05CF                     l2417:
  6719     05CF  3001               	movlw	1
  6720     05D0  07E2               	addwf	___fladd@b,f
  6721     05D1  3000               	movlw	0
  6722     05D2  1803               	skipnc
  6723     05D3  3001               	movlw	1
  6724     05D4  07E3               	addwf	___fladd@b+1,f
  6725     05D5  3000               	movlw	0
  6726     05D6  1803               	skipnc
  6727     05D7  3001               	movlw	1
  6728     05D8  07E4               	addwf	___fladd@b+2,f
  6729     05D9  3000               	movlw	0
  6730     05DA  1803               	skipnc
  6731     05DB  3001               	movlw	1
  6732     05DC  07E5               	addwf	___fladd@b+3,f
  6733     05DD                     l2419:
  6734     05DD  1C65               	btfss	___fladd@b+3,0
  6735     05DE  2DE0               	goto	u2631
  6736     05DF  2DE1               	goto	u2630
  6737     05E0                     u2631:
  6738     05E0  2E23               	goto	l742
  6739     05E1                     u2630:
  6740     05E1                     l2421:
  6741     05E1  0862               	movf	___fladd@b,w
  6742     05E2  1683               	bsf	3,5	;RP0=1, select bank1
  6743     05E3  1303               	bcf	3,6	;RP1=0, select bank1
  6744     05E4  00A0               	movwf	??___fladd^(0+128)
  6745     05E5  1283               	bcf	3,5	;RP0=0, select bank0
  6746     05E6  1303               	bcf	3,6	;RP1=0, select bank0
  6747     05E7  0863               	movf	___fladd@b+1,w
  6748     05E8  1683               	bsf	3,5	;RP0=1, select bank1
  6749     05E9  1303               	bcf	3,6	;RP1=0, select bank1
  6750     05EA  00A1               	movwf	(??___fladd^(0+128)+1)
  6751     05EB  1283               	bcf	3,5	;RP0=0, select bank0
  6752     05EC  1303               	bcf	3,6	;RP1=0, select bank0
  6753     05ED  0864               	movf	___fladd@b+2,w
  6754     05EE  1683               	bsf	3,5	;RP0=1, select bank1
  6755     05EF  1303               	bcf	3,6	;RP1=0, select bank1
  6756     05F0  00A2               	movwf	(??___fladd^(0+128)+2)
  6757     05F1  1283               	bcf	3,5	;RP0=0, select bank0
  6758     05F2  1303               	bcf	3,6	;RP1=0, select bank0
  6759     05F3  0865               	movf	___fladd@b+3,w
  6760     05F4  1683               	bsf	3,5	;RP0=1, select bank1
  6761     05F5  1303               	bcf	3,6	;RP1=0, select bank1
  6762     05F6  00A3               	movwf	(??___fladd^(0+128)+3)
  6763     05F7  3001               	movlw	1
  6764     05F8  00A4               	movwf	(??___fladd+4)^(0+128)
  6765     05F9                     u2645:
  6766     05F9  0D23               	rlf	(??___fladd^(0+128)+3),w
  6767     05FA  0CA3               	rrf	(??___fladd^(0+128)+3),f
  6768     05FB  0CA2               	rrf	(??___fladd^(0+128)+2),f
  6769     05FC  0CA1               	rrf	(??___fladd^(0+128)+1),f
  6770     05FD  0CA0               	rrf	??___fladd^(0+128),f
  6771     05FE                     u2640:
  6772     05FE  0BA4               	decfsz	(??___fladd+4)^(0+128),f
  6773     05FF  2DF9               	goto	u2645
  6774     0600  0823               	movf	(??___fladd+3)^(0+128),w
  6775     0601  1283               	bcf	3,5	;RP0=0, select bank0
  6776     0602  1303               	bcf	3,6	;RP1=0, select bank0
  6777     0603  00E5               	movwf	___fladd@b+3
  6778     0604  1683               	bsf	3,5	;RP0=1, select bank1
  6779     0605  1303               	bcf	3,6	;RP1=0, select bank1
  6780     0606  0822               	movf	(??___fladd+2)^(0+128),w
  6781     0607  1283               	bcf	3,5	;RP0=0, select bank0
  6782     0608  1303               	bcf	3,6	;RP1=0, select bank0
  6783     0609  00E4               	movwf	___fladd@b+2
  6784     060A  1683               	bsf	3,5	;RP0=1, select bank1
  6785     060B  1303               	bcf	3,6	;RP1=0, select bank1
  6786     060C  0821               	movf	(??___fladd+1)^(0+128),w
  6787     060D  1283               	bcf	3,5	;RP0=0, select bank0
  6788     060E  1303               	bcf	3,6	;RP1=0, select bank0
  6789     060F  00E3               	movwf	___fladd@b+1
  6790     0610  1683               	bsf	3,5	;RP0=1, select bank1
  6791     0611  1303               	bcf	3,6	;RP1=0, select bank1
  6792     0612  0820               	movf	??___fladd^(0+128),w
  6793     0613  1283               	bcf	3,5	;RP0=0, select bank0
  6794     0614  1303               	bcf	3,6	;RP1=0, select bank0
  6795     0615  00E2               	movwf	___fladd@b
  6796     0616  0A6C               	incf	___fladd@bexp,w
  6797     0617  1903               	btfsc	3,2
  6798     0618  2E1A               	goto	u2651
  6799     0619  2E1B               	goto	u2650
  6800     061A                     u2651:
  6801     061A  2E23               	goto	l742
  6802     061B                     u2650:
  6803     061B                     l2423:
  6804     061B  3001               	movlw	1
  6805     061C  1683               	bsf	3,5	;RP0=1, select bank1
  6806     061D  1303               	bcf	3,6	;RP1=0, select bank1
  6807     061E  00A0               	movwf	??___fladd^(0+128)
  6808     061F  0820               	movf	??___fladd^(0+128),w
  6809     0620  1283               	bcf	3,5	;RP0=0, select bank0
  6810     0621  1303               	bcf	3,6	;RP1=0, select bank0
  6811     0622  07EC               	addwf	___fladd@bexp,f
  6812     0623                     l742:
  6813     0623  0A6C               	incf	___fladd@bexp,w
  6814     0624  1903               	btfsc	3,2
  6815     0625  2E27               	goto	u2661
  6816     0626  2E28               	goto	u2660
  6817     0627                     u2661:
  6818     0627  2E2D               	goto	l2427
  6819     0628                     u2660:
  6820     0628                     l2425:
  6821     0628  086C               	movf	___fladd@bexp,w
  6822     0629  1D03               	btfss	3,2
  6823     062A  2E2C               	goto	u2671
  6824     062B  2E2D               	goto	u2670
  6825     062C                     u2671:
  6826     062C  2E3B               	goto	l2433
  6827     062D                     u2670:
  6828     062D                     l2427:
  6829     062D  3000               	movlw	0
  6830     062E  00E5               	movwf	___fladd@b+3
  6831     062F  3000               	movlw	0
  6832     0630  00E4               	movwf	___fladd@b+2
  6833     0631  3000               	movlw	0
  6834     0632  00E3               	movwf	___fladd@b+1
  6835     0633  3000               	movlw	0
  6836     0634  00E2               	movwf	___fladd@b
  6837     0635                     l2429:
  6838     0635  086C               	movf	___fladd@bexp,w
  6839     0636  1D03               	btfss	3,2
  6840     0637  2E39               	goto	u2681
  6841     0638  2E3A               	goto	u2680
  6842     0639                     u2681:
  6843     0639  2E3B               	goto	l2433
  6844     063A                     u2680:
  6845     063A                     l2431:
  6846     063A  01EA               	clrf	___fladd@signs
  6847     063B                     l2433:
  6848     063B  1C6C               	btfss	___fladd@bexp,0
  6849     063C  2E3E               	goto	u2691
  6850     063D  2E3F               	goto	u2690
  6851     063E                     u2691:
  6852     063E  2E41               	goto	l2437
  6853     063F                     u2690:
  6854     063F                     l2435:
  6855     063F  17E4               	bsf	___fladd@b+2,7
  6856     0640  2E49               	goto	l750
  6857     0641                     l2437:
  6858     0641  307F               	movlw	127
  6859     0642  1683               	bsf	3,5	;RP0=1, select bank1
  6860     0643  1303               	bcf	3,6	;RP1=0, select bank1
  6861     0644  00A0               	movwf	??___fladd^(0+128)
  6862     0645  0820               	movf	??___fladd^(0+128),w
  6863     0646  1283               	bcf	3,5	;RP0=0, select bank0
  6864     0647  1303               	bcf	3,6	;RP1=0, select bank0
  6865     0648  05E4               	andwf	___fladd@b+2,f
  6866     0649                     l750:
  6867     0649  086C               	movf	___fladd@bexp,w
  6868     064A  1683               	bsf	3,5	;RP0=1, select bank1
  6869     064B  1303               	bcf	3,6	;RP1=0, select bank1
  6870     064C  00A0               	movwf	??___fladd^(0+128)
  6871     064D  1003               	clrc
  6872     064E  0C20               	rrf	??___fladd^(0+128),w
  6873     064F  1283               	bcf	3,5	;RP0=0, select bank0
  6874     0650  1303               	bcf	3,6	;RP1=0, select bank0
  6875     0651  00E5               	movwf	___fladd@b+3
  6876     0652                     l2439:
  6877     0652  1FEA               	btfss	___fladd@signs,7
  6878     0653  2E55               	goto	u2701
  6879     0654  2E56               	goto	u2700
  6880     0655                     u2701:
  6881     0655  2E57               	goto	l751
  6882     0656                     u2700:
  6883     0656                     l2441:
  6884     0656  17E5               	bsf	___fladd@b+3,7
  6885     0657                     l751:
  6886     0657                     l721:
  6887     0657  0008               	return
  6888     0658                     __end_of___fladd:
  6889                           
  6890                           	psect	text21
  6891     17B3                     __ptext21:	
  6892 ;; *************** function _adc_start *****************
  6893 ;; Defined at:
  6894 ;;		line 35 in file "adc.c"
  6895 ;; Parameters:    Size  Location     Type
  6896 ;;  channel         1    wreg     unsigned char 
  6897 ;; Auto vars:     Size  Location     Type
  6898 ;;  channel         1    1[BANK0 ] unsigned char 
  6899 ;; Return value:  Size  Location     Type
  6900 ;;                  1    wreg      void 
  6901 ;; Registers used:
  6902 ;;		wreg, status,2, status,0
  6903 ;; Tracked objects:
  6904 ;;		On entry : 0/0
  6905 ;;		On exit  : 0/0
  6906 ;;		Unchanged: 0/0
  6907 ;; Data sizes:     COMMON   BANK0   BANK1   BANK3   BANK2
  6908 ;;      Params:         0       0       0       0       0
  6909 ;;      Locals:         0       1       0       0       0
  6910 ;;      Temps:          0       1       0       0       0
  6911 ;;      Totals:         0       2       0       0       0
  6912 ;;Total ram usage:        2 bytes
  6913 ;; Hardware stack levels used: 1
  6914 ;; Hardware stack levels required when called: 2
  6915 ;; This function calls:
  6916 ;;		Nothing
  6917 ;; This function is called by:
  6918 ;;		_main
  6919 ;; This function uses a non-reentrant model
  6920 ;;
  6921                           
  6922     17B3                     _adc_start:	
  6923                           ;psect for function _adc_start
  6924                           
  6925                           
  6926                           ;incstack = 0
  6927                           ; Regs used in _adc_start: [wreg+status,2+status,0]
  6928                           ;adc_start@channel stored from wreg
  6929     17B3  1283               	bcf	3,5	;RP0=0, select bank0
  6930     17B4  1303               	bcf	3,6	;RP1=0, select bank0
  6931     17B5  00A1               	movwf	adc_start@channel
  6932     17B6                     l3577:
  6933                           
  6934                           ;adc.c: 37:     if(channel < 14){
  6935     17B6  300E               	movlw	14
  6936     17B7  0221               	subwf	adc_start@channel,w
  6937     17B8  1803               	skipnc
  6938     17B9  2FBB               	goto	u4581
  6939     17BA  2FBC               	goto	u4580
  6940     17BB                     u4581:
  6941     17BB  2FC6               	goto	l3581
  6942     17BC                     u4580:
  6943     17BC                     l3579:
  6944                           
  6945                           ;adc.c: 38:         ADCON0bits.CHS = channel;
  6946     17BC  0821               	movf	adc_start@channel,w
  6947     17BD  00A0               	movwf	??_adc_start
  6948     17BE  0DA0               	rlf	??_adc_start,f
  6949     17BF  0DA0               	rlf	??_adc_start,f
  6950     17C0  081F               	movf	31,w	;volatile
  6951     17C1  0620               	xorwf	??_adc_start,w
  6952     17C2  39C3               	andlw	-61
  6953     17C3  0620               	xorwf	??_adc_start,w
  6954     17C4  009F               	movwf	31	;volatile
  6955                           
  6956                           ;adc.c: 39:     }
  6957     17C5  2FC8               	goto	l3583
  6958     17C6                     l3581:
  6959                           
  6960                           ;adc.c: 41:         ADCON0bits.CHS = 0;
  6961     17C6  30C3               	movlw	-61
  6962     17C7  059F               	andwf	31,f	;volatile
  6963     17C8                     l3583:
  6964                           
  6965                           ;adc.c: 43:     _delay((unsigned long)((40)*(4000000/4000000.0)));
  6966     17C8  300C               	movlw	12
  6967     17C9  1283               	bcf	3,5	;RP0=0, select bank0
  6968     17CA  1303               	bcf	3,6	;RP1=0, select bank0
  6969     17CB  00A0               	movwf	??_adc_start
  6970     17CC                     u4757:
  6971     17CC  0BA0               	decfsz	??_adc_start,f
  6972     17CD  2FCC               	goto	u4757
  6973     17CE  0000               	nop
  6974     17CF                     l3585:
  6975                           
  6976                           ;adc.c: 44:     ADCON0bits.GO = 1;
  6977     17CF  1283               	bcf	3,5	;RP0=0, select bank0
  6978     17D0  1303               	bcf	3,6	;RP1=0, select bank0
  6979     17D1  149F               	bsf	31,1	;volatile
  6980     17D2                     l295:	
  6981                           ;adc.c: 45:     while (ADCON0bits.GO){}
  6982                           
  6983     17D2  189F               	btfsc	31,1	;volatile
  6984     17D3  2FD5               	goto	u4591
  6985     17D4  2FD6               	goto	u4590
  6986     17D5                     u4591:
  6987     17D5  2FD2               	goto	l295
  6988     17D6                     u4590:
  6989     17D6                     l298:
  6990     17D6  0008               	return
  6991     17D7                     __end_of_adc_start:
  6992                           
  6993                           	psect	text22
  6994     1762                     __ptext22:	
  6995 ;; *************** function ___bmul *****************
  6996 ;; Defined at:
  6997 ;;		line 4 in file "C:\Program Files\Microchip\xc8\v2.40\pic\sources\c90\common\Umul8.c"
  6998 ;; Parameters:    Size  Location     Type
  6999 ;;  multiplier      1    wreg     unsigned char 
  7000 ;;  multiplicand    1    0[BANK0 ] unsigned char 
  7001 ;; Auto vars:     Size  Location     Type
  7002 ;;  multiplier      1    3[BANK0 ] unsigned char 
  7003 ;;  product         1    2[BANK0 ] unsigned char 
  7004 ;; Return value:  Size  Location     Type
  7005 ;;                  1    wreg      unsigned char 
  7006 ;; Registers used:
  7007 ;;		wreg, status,2, status,0
  7008 ;; Tracked objects:
  7009 ;;		On entry : 0/0
  7010 ;;		On exit  : 0/0
  7011 ;;		Unchanged: 0/0
  7012 ;; Data sizes:     COMMON   BANK0   BANK1   BANK3   BANK2
  7013 ;;      Params:         0       1       0       0       0
  7014 ;;      Locals:         0       2       0       0       0
  7015 ;;      Temps:          0       1       0       0       0
  7016 ;;      Totals:         0       4       0       0       0
  7017 ;;Total ram usage:        4 bytes
  7018 ;; Hardware stack levels used: 1
  7019 ;; Hardware stack levels required when called: 2
  7020 ;; This function calls:
  7021 ;;		Nothing
  7022 ;; This function is called by:
  7023 ;;		_main
  7024 ;; This function uses a non-reentrant model
  7025 ;;
  7026                           
  7027     1762                     ___bmul:	
  7028                           ;psect for function ___bmul
  7029                           
  7030                           
  7031                           ;incstack = 0
  7032                           ; Regs used in ___bmul: [wreg+status,2+status,0]
  7033                           ;___bmul@multiplier stored from wreg
  7034     1762  1283               	bcf	3,5	;RP0=0, select bank0
  7035     1763  1303               	bcf	3,6	;RP1=0, select bank0
  7036     1764  00A3               	movwf	___bmul@multiplier
  7037     1765                     l3587:
  7038     1765  01A2               	clrf	___bmul@product
  7039     1766                     l3589:
  7040     1766  1C23               	btfss	___bmul@multiplier,0
  7041     1767  2F69               	goto	u4601
  7042     1768  2F6A               	goto	u4600
  7043     1769                     u4601:
  7044     1769  2F6E               	goto	l3593
  7045     176A                     u4600:
  7046     176A                     l3591:
  7047     176A  0820               	movf	___bmul@multiplicand,w
  7048     176B  00A1               	movwf	??___bmul
  7049     176C  0821               	movf	??___bmul,w
  7050     176D  07A2               	addwf	___bmul@product,f
  7051     176E                     l3593:
  7052     176E  1003               	clrc
  7053     176F  0DA0               	rlf	___bmul@multiplicand,f
  7054     1770                     l3595:
  7055     1770  1003               	clrc
  7056     1771  0CA3               	rrf	___bmul@multiplier,f
  7057     1772  0823               	movf	___bmul@multiplier,w
  7058     1773  1D03               	btfss	3,2
  7059     1774  2F76               	goto	u4611
  7060     1775  2F77               	goto	u4610
  7061     1776                     u4611:
  7062     1776  2F66               	goto	l3589
  7063     1777                     u4610:
  7064     1777                     l3597:
  7065     1777  0822               	movf	___bmul@product,w
  7066     1778                     l441:
  7067     1778  0008               	return
  7068     1779                     __end_of___bmul:
  7069                           
  7070                           	psect	text23
  7071     0926                     __ptext23:	
  7072 ;; *************** function _Lcd_Write_String *****************
  7073 ;; Defined at:
  7074 ;;		line 101 in file "../PRUEBA.X/LCD.c"
  7075 ;; Parameters:    Size  Location     Type
  7076 ;;  a               2    5[BANK0 ] PTR unsigned char 
  7077 ;;		 -> s(1), STR_1(15), 
  7078 ;; Auto vars:     Size  Location     Type
  7079 ;;  i               2   10[BANK0 ] int 
  7080 ;; Return value:  Size  Location     Type
  7081 ;;                  1    wreg      void 
  7082 ;; Registers used:
  7083 ;;		wreg, fsr0l, fsr0h, status,2, status,0, btemp+1, pclath, cstack
  7084 ;; Tracked objects:
  7085 ;;		On entry : 0/0
  7086 ;;		On exit  : 0/0
  7087 ;;		Unchanged: 0/0
  7088 ;; Data sizes:     COMMON   BANK0   BANK1   BANK3   BANK2
  7089 ;;      Params:         0       2       0       0       0
  7090 ;;      Locals:         0       2       0       0       0
  7091 ;;      Temps:          0       3       0       0       0
  7092 ;;      Totals:         0       7       0       0       0
  7093 ;;Total ram usage:        7 bytes
  7094 ;; Hardware stack levels used: 1
  7095 ;; Hardware stack levels required when called: 4
  7096 ;; This function calls:
  7097 ;;		_Lcd_Write_Char
  7098 ;; This function is called by:
  7099 ;;		_main
  7100 ;; This function uses a non-reentrant model
  7101 ;;
  7102                           
  7103     0926                     _Lcd_Write_String:	
  7104                           ;psect for function _Lcd_Write_String
  7105                           
  7106     0926                     l3469:	
  7107                           ;incstack = 0
  7108                           ; Regs used in _Lcd_Write_String: [wreg-fsr0h+status,2+status,0+btemp+1+pclath+cstack]
  7109                           
  7110                           
  7111                           ;../PRUEBA.X/LCD.c: 102:     int i;;../PRUEBA.X/LCD.c: 103:     for (i = 0; a[i] != '\0'
      +                          ; i++)
  7112     0926  1283               	bcf	3,5	;RP0=0, select bank0
  7113     0927  1303               	bcf	3,6	;RP1=0, select bank0
  7114     0928  01AA               	clrf	Lcd_Write_String@i
  7115     0929  01AB               	clrf	Lcd_Write_String@i+1
  7116     092A  294F               	goto	l3475
  7117     092B                     l3471:
  7118                           
  7119                           ;../PRUEBA.X/LCD.c: 104:         Lcd_Write_Char(a[i]);
  7120     092B  082A               	movf	Lcd_Write_String@i,w
  7121     092C  0725               	addwf	Lcd_Write_String@a,w
  7122     092D  00A8               	movwf	??_Lcd_Write_String+1
  7123     092E  0826               	movf	Lcd_Write_String@a+1,w
  7124     092F  00A7               	movwf	??_Lcd_Write_String
  7125     0930  1803               	skipnc
  7126     0931  0AA7               	incf	??_Lcd_Write_String,f
  7127     0932  1FAA               	btfss	Lcd_Write_String@i,7
  7128     0933  2935               	goto	u4470
  7129     0934  03A7               	decf	??_Lcd_Write_String,f
  7130     0935                     u4470:
  7131     0935  1283               	bcf	3,5	;RP0=0, select bank0
  7132     0936  1303               	bcf	3,6	;RP1=0, select bank0
  7133     0937  0827               	movf	??_Lcd_Write_String,w
  7134     0938  00A9               	movwf	??_Lcd_Write_String+2
  7135     0939  0829               	movf	??_Lcd_Write_String+2,w
  7136     093A  00FF               	movwf	btemp+1
  7137     093B  0828               	movf	??_Lcd_Write_String+1,w
  7138     093C  0084               	movwf	4
  7139     093D  120A  158A  2000  120A  158A  	fcall	stringtab
  7140     0942  120A  158A  206F  120A  158A  	fcall	_Lcd_Write_Char
  7141     0947                     l3473:
  7142     0947  3001               	movlw	1
  7143     0948  1283               	bcf	3,5	;RP0=0, select bank0
  7144     0949  1303               	bcf	3,6	;RP1=0, select bank0
  7145     094A  07AA               	addwf	Lcd_Write_String@i,f
  7146     094B  1803               	skipnc
  7147     094C  0AAB               	incf	Lcd_Write_String@i+1,f
  7148     094D  3000               	movlw	0
  7149     094E  07AB               	addwf	Lcd_Write_String@i+1,f
  7150     094F                     l3475:
  7151     094F  082A               	movf	Lcd_Write_String@i,w
  7152     0950  0725               	addwf	Lcd_Write_String@a,w
  7153     0951  00A8               	movwf	??_Lcd_Write_String+1
  7154     0952  0826               	movf	Lcd_Write_String@a+1,w
  7155     0953  00A7               	movwf	??_Lcd_Write_String
  7156     0954  1803               	skipnc
  7157     0955  0AA7               	incf	??_Lcd_Write_String,f
  7158     0956  1FAA               	btfss	Lcd_Write_String@i,7
  7159     0957  2959               	goto	u4480
  7160     0958  03A7               	decf	??_Lcd_Write_String,f
  7161     0959                     u4480:
  7162     0959  1283               	bcf	3,5	;RP0=0, select bank0
  7163     095A  1303               	bcf	3,6	;RP1=0, select bank0
  7164     095B  0827               	movf	??_Lcd_Write_String,w
  7165     095C  00A9               	movwf	??_Lcd_Write_String+2
  7166     095D  0829               	movf	??_Lcd_Write_String+2,w
  7167     095E  00FF               	movwf	btemp+1
  7168     095F  0828               	movf	??_Lcd_Write_String+1,w
  7169     0960  0084               	movwf	4
  7170     0961  120A  158A  2000  120A  158A  	fcall	stringtab
  7171     0966  3A00               	xorlw	0
  7172     0967  1D03               	skipz
  7173     0968  296A               	goto	u4491
  7174     0969  296B               	goto	u4490
  7175     096A                     u4491:
  7176     096A  292B               	goto	l3471
  7177     096B                     u4490:
  7178     096B                     l186:
  7179     096B  0008               	return
  7180     096C                     __end_of_Lcd_Write_String:
  7181                           
  7182                           	psect	text24
  7183     086F                     __ptext24:	
  7184 ;; *************** function _Lcd_Write_Char *****************
  7185 ;; Defined at:
  7186 ;;		line 86 in file "../PRUEBA.X/LCD.c"
  7187 ;; Parameters:    Size  Location     Type
  7188 ;;  a               1    wreg     unsigned char 
  7189 ;; Auto vars:     Size  Location     Type
  7190 ;;  a               1    4[BANK0 ] unsigned char 
  7191 ;;  y               1    3[BANK0 ] unsigned char 
  7192 ;;  temp            1    2[BANK0 ] unsigned char 
  7193 ;; Return value:  Size  Location     Type
  7194 ;;                  1    wreg      void 
  7195 ;; Registers used:
  7196 ;;		wreg, status,2, status,0, pclath, cstack
  7197 ;; Tracked objects:
  7198 ;;		On entry : 0/0
  7199 ;;		On exit  : 0/0
  7200 ;;		Unchanged: 0/0
  7201 ;; Data sizes:     COMMON   BANK0   BANK1   BANK3   BANK2
  7202 ;;      Params:         0       0       0       0       0
  7203 ;;      Locals:         0       3       0       0       0
  7204 ;;      Temps:          0       1       0       0       0
  7205 ;;      Totals:         0       4       0       0       0
  7206 ;;Total ram usage:        4 bytes
  7207 ;; Hardware stack levels used: 1
  7208 ;; Hardware stack levels required when called: 3
  7209 ;; This function calls:
  7210 ;;		_Lcd_Port
  7211 ;; This function is called by:
  7212 ;;		_Lcd_Write_String
  7213 ;; This function uses a non-reentrant model
  7214 ;;
  7215                           
  7216     086F                     _Lcd_Write_Char:	
  7217                           ;psect for function _Lcd_Write_Char
  7218                           
  7219                           
  7220                           ;incstack = 0
  7221                           ; Regs used in _Lcd_Write_Char: [wreg+status,2+status,0+pclath+cstack]
  7222                           ;Lcd_Write_Char@a stored from wreg
  7223     086F  1283               	bcf	3,5	;RP0=0, select bank0
  7224     0870  1303               	bcf	3,6	;RP1=0, select bank0
  7225     0871  00A4               	movwf	Lcd_Write_Char@a
  7226     0872                     l3227:
  7227                           
  7228                           ;../PRUEBA.X/LCD.c: 87:     char temp, y;;../PRUEBA.X/LCD.c: 88:     temp = a & 0x0F;
  7229     0872  0824               	movf	Lcd_Write_Char@a,w
  7230     0873  390F               	andlw	15
  7231     0874  00A2               	movwf	Lcd_Write_Char@temp
  7232                           
  7233                           ;../PRUEBA.X/LCD.c: 89:     y = a & 0xF0;
  7234     0875  0824               	movf	Lcd_Write_Char@a,w
  7235     0876  39F0               	andlw	240
  7236     0877  00A3               	movwf	Lcd_Write_Char@y
  7237     0878                     l3229:
  7238                           
  7239                           ;../PRUEBA.X/LCD.c: 90:     PORTDbits.RD2 = 1;
  7240     0878  1508               	bsf	8,2	;volatile
  7241     0879                     l3231:
  7242                           
  7243                           ;../PRUEBA.X/LCD.c: 91:     Lcd_Port(y >> 4);
  7244     0879  0823               	movf	Lcd_Write_Char@y,w
  7245     087A  00A1               	movwf	??_Lcd_Write_Char
  7246     087B  3004               	movlw	4
  7247     087C                     u3915:
  7248     087C  1003               	clrc
  7249     087D  0CA1               	rrf	??_Lcd_Write_Char,f
  7250     087E  3EFF               	addlw	-1
  7251     087F  1D03               	skipz
  7252     0880  287C               	goto	u3915
  7253     0881  0821               	movf	??_Lcd_Write_Char,w
  7254     0882  120A  118A  27DE  120A  158A  	fcall	_Lcd_Port
  7255     0887                     l3233:
  7256                           
  7257                           ;../PRUEBA.X/LCD.c: 92:     RD3 = 1;
  7258     0887  1283               	bcf	3,5	;RP0=0, select bank0
  7259     0888  1303               	bcf	3,6	;RP1=0, select bank0
  7260     0889  1588               	bsf	8,3	;volatile
  7261     088A                     l3235:
  7262                           
  7263                           ;../PRUEBA.X/LCD.c: 93:     _delay((unsigned long)((40)*(8000000/4000000.0)));
  7264     088A  3019               	movlw	25
  7265     088B  1283               	bcf	3,5	;RP0=0, select bank0
  7266     088C  1303               	bcf	3,6	;RP1=0, select bank0
  7267     088D  00A1               	movwf	??_Lcd_Write_Char
  7268     088E                     u4767:
  7269     088E  0BA1               	decfsz	??_Lcd_Write_Char,f
  7270     088F  288E               	goto	u4767
  7271     0890  2891               	nop2
  7272     0891                     l3237:
  7273                           
  7274                           ;../PRUEBA.X/LCD.c: 94:     RD3 = 0;
  7275     0891  1283               	bcf	3,5	;RP0=0, select bank0
  7276     0892  1303               	bcf	3,6	;RP1=0, select bank0
  7277     0893  1188               	bcf	8,3	;volatile
  7278     0894                     l3239:
  7279                           
  7280                           ;../PRUEBA.X/LCD.c: 95:     Lcd_Port(temp);
  7281     0894  0822               	movf	Lcd_Write_Char@temp,w
  7282     0895  120A  118A  27DE  120A  158A  	fcall	_Lcd_Port
  7283     089A                     l3241:
  7284                           
  7285                           ;../PRUEBA.X/LCD.c: 96:     RD3 = 1;
  7286     089A  1283               	bcf	3,5	;RP0=0, select bank0
  7287     089B  1303               	bcf	3,6	;RP1=0, select bank0
  7288     089C  1588               	bsf	8,3	;volatile
  7289     089D                     l3243:
  7290                           
  7291                           ;../PRUEBA.X/LCD.c: 97:     _delay((unsigned long)((40)*(8000000/4000000.0)));
  7292     089D  3019               	movlw	25
  7293     089E  1283               	bcf	3,5	;RP0=0, select bank0
  7294     089F  1303               	bcf	3,6	;RP1=0, select bank0
  7295     08A0  00A1               	movwf	??_Lcd_Write_Char
  7296     08A1                     u4777:
  7297     08A1  0BA1               	decfsz	??_Lcd_Write_Char,f
  7298     08A2  28A1               	goto	u4777
  7299     08A3  28A4               	nop2
  7300     08A4                     l3245:
  7301                           
  7302                           ;../PRUEBA.X/LCD.c: 98:     RD3 = 0;
  7303     08A4  1283               	bcf	3,5	;RP0=0, select bank0
  7304     08A5  1303               	bcf	3,6	;RP1=0, select bank0
  7305     08A6  1188               	bcf	8,3	;volatile
  7306     08A7                     l180:
  7307     08A7  0008               	return
  7308     08A8                     __end_of_Lcd_Write_Char:
  7309                           
  7310                           	psect	text25
  7311     09FD                     __ptext25:	
  7312 ;; *************** function _Lcd_Set_Cursor *****************
  7313 ;; Defined at:
  7314 ;;		line 50 in file "../PRUEBA.X/LCD.c"
  7315 ;; Parameters:    Size  Location     Type
  7316 ;;  a               1    wreg     unsigned char 
  7317 ;;  b               1    4[BANK0 ] unsigned char 
  7318 ;; Auto vars:     Size  Location     Type
  7319 ;;  a               1    6[BANK0 ] unsigned char 
  7320 ;;  temp            1    9[BANK0 ] unsigned char 
  7321 ;;  y               1    8[BANK0 ] unsigned char 
  7322 ;;  z               1    7[BANK0 ] unsigned char 
  7323 ;; Return value:  Size  Location     Type
  7324 ;;                  1    wreg      void 
  7325 ;; Registers used:
  7326 ;;		wreg, status,2, status,0, pclath, cstack
  7327 ;; Tracked objects:
  7328 ;;		On entry : 0/0
  7329 ;;		On exit  : 0/0
  7330 ;;		Unchanged: 0/0
  7331 ;; Data sizes:     COMMON   BANK0   BANK1   BANK3   BANK2
  7332 ;;      Params:         0       1       0       0       0
  7333 ;;      Locals:         0       4       0       0       0
  7334 ;;      Temps:          0       1       0       0       0
  7335 ;;      Totals:         0       6       0       0       0
  7336 ;;Total ram usage:        6 bytes
  7337 ;; Hardware stack levels used: 1
  7338 ;; Hardware stack levels required when called: 4
  7339 ;; This function calls:
  7340 ;;		_Lcd_Cmd
  7341 ;; This function is called by:
  7342 ;;		_main
  7343 ;; This function uses a non-reentrant model
  7344 ;;
  7345                           
  7346     09FD                     _Lcd_Set_Cursor:	
  7347                           ;psect for function _Lcd_Set_Cursor
  7348                           
  7349                           
  7350                           ;incstack = 0
  7351                           ; Regs used in _Lcd_Set_Cursor: [wreg+status,2+status,0+pclath+cstack]
  7352                           ;Lcd_Set_Cursor@a stored from wreg
  7353     09FD  1283               	bcf	3,5	;RP0=0, select bank0
  7354     09FE  1303               	bcf	3,6	;RP1=0, select bank0
  7355     09FF  00A6               	movwf	Lcd_Set_Cursor@a
  7356     0A00                     l3449:
  7357                           
  7358                           ;../PRUEBA.X/LCD.c: 50: void Lcd_Set_Cursor(char a, char b);../PRUEBA.X/LCD.c: 51: {;../
      +                          PRUEBA.X/LCD.c: 52:     char temp, z, y;;../PRUEBA.X/LCD.c: 53:     if (a == 1) {
  7359     0A00  0326               	decf	Lcd_Set_Cursor@a,w
  7360     0A01  1D03               	btfss	3,2
  7361     0A02  2A04               	goto	u4431
  7362     0A03  2A05               	goto	u4430
  7363     0A04                     u4431:
  7364     0A04  2A24               	goto	l3459
  7365     0A05                     u4430:
  7366     0A05                     l3451:
  7367                           
  7368                           ;../PRUEBA.X/LCD.c: 54:         temp = 0x80 + b - 1;
  7369     0A05  0824               	movf	Lcd_Set_Cursor@b,w
  7370     0A06  3E7F               	addlw	127
  7371     0A07  00A9               	movwf	Lcd_Set_Cursor@temp
  7372                           
  7373                           ;../PRUEBA.X/LCD.c: 55:         z = temp >> 4;
  7374     0A08  0829               	movf	Lcd_Set_Cursor@temp,w
  7375     0A09  00A5               	movwf	??_Lcd_Set_Cursor
  7376     0A0A  3004               	movlw	4
  7377     0A0B                     u4445:
  7378     0A0B  1003               	clrc
  7379     0A0C  0CA5               	rrf	??_Lcd_Set_Cursor,f
  7380     0A0D  3EFF               	addlw	-1
  7381     0A0E  1D03               	skipz
  7382     0A0F  2A0B               	goto	u4445
  7383     0A10  0825               	movf	??_Lcd_Set_Cursor,w
  7384     0A11  00A7               	movwf	Lcd_Set_Cursor@z
  7385     0A12                     l3453:
  7386                           
  7387                           ;../PRUEBA.X/LCD.c: 56:         y = temp & 0x0F;
  7388     0A12  0829               	movf	Lcd_Set_Cursor@temp,w
  7389     0A13  390F               	andlw	15
  7390     0A14  00A8               	movwf	Lcd_Set_Cursor@y
  7391     0A15                     l3455:
  7392                           
  7393                           ;../PRUEBA.X/LCD.c: 57:         Lcd_Cmd(z);
  7394     0A15  0827               	movf	Lcd_Set_Cursor@z,w
  7395     0A16  160A  118A  2779  120A  158A  	fcall	_Lcd_Cmd
  7396     0A1B                     l3457:
  7397                           
  7398                           ;../PRUEBA.X/LCD.c: 58:         Lcd_Cmd(y);
  7399     0A1B  1283               	bcf	3,5	;RP0=0, select bank0
  7400     0A1C  1303               	bcf	3,6	;RP1=0, select bank0
  7401     0A1D  0828               	movf	Lcd_Set_Cursor@y,w
  7402     0A1E  160A  118A  2779  120A  158A  	fcall	_Lcd_Cmd
  7403                           
  7404                           ;../PRUEBA.X/LCD.c: 59:     } else if (a == 2) {
  7405     0A23  2A48               	goto	l174
  7406     0A24                     l3459:
  7407     0A24  3002               	movlw	2
  7408     0A25  0626               	xorwf	Lcd_Set_Cursor@a,w
  7409     0A26  1D03               	btfss	3,2
  7410     0A27  2A29               	goto	u4451
  7411     0A28  2A2A               	goto	u4450
  7412     0A29                     u4451:
  7413     0A29  2A48               	goto	l174
  7414     0A2A                     u4450:
  7415     0A2A                     l3461:
  7416                           
  7417                           ;../PRUEBA.X/LCD.c: 60:         temp = 0xC0 + b - 1;
  7418     0A2A  0824               	movf	Lcd_Set_Cursor@b,w
  7419     0A2B  3EBF               	addlw	191
  7420     0A2C  00A9               	movwf	Lcd_Set_Cursor@temp
  7421                           
  7422                           ;../PRUEBA.X/LCD.c: 61:         z = temp >> 4;
  7423     0A2D  0829               	movf	Lcd_Set_Cursor@temp,w
  7424     0A2E  00A5               	movwf	??_Lcd_Set_Cursor
  7425     0A2F  3004               	movlw	4
  7426     0A30                     u4465:
  7427     0A30  1003               	clrc
  7428     0A31  0CA5               	rrf	??_Lcd_Set_Cursor,f
  7429     0A32  3EFF               	addlw	-1
  7430     0A33  1D03               	skipz
  7431     0A34  2A30               	goto	u4465
  7432     0A35  0825               	movf	??_Lcd_Set_Cursor,w
  7433     0A36  00A7               	movwf	Lcd_Set_Cursor@z
  7434     0A37                     l3463:
  7435                           
  7436                           ;../PRUEBA.X/LCD.c: 62:         y = temp & 0x0F;
  7437     0A37  0829               	movf	Lcd_Set_Cursor@temp,w
  7438     0A38  390F               	andlw	15
  7439     0A39  00A8               	movwf	Lcd_Set_Cursor@y
  7440     0A3A                     l3465:
  7441                           
  7442                           ;../PRUEBA.X/LCD.c: 63:         Lcd_Cmd(z);
  7443     0A3A  0827               	movf	Lcd_Set_Cursor@z,w
  7444     0A3B  160A  118A  2779  120A  158A  	fcall	_Lcd_Cmd
  7445     0A40                     l3467:
  7446                           
  7447                           ;../PRUEBA.X/LCD.c: 64:         Lcd_Cmd(y);
  7448     0A40  1283               	bcf	3,5	;RP0=0, select bank0
  7449     0A41  1303               	bcf	3,6	;RP1=0, select bank0
  7450     0A42  0828               	movf	Lcd_Set_Cursor@y,w
  7451     0A43  160A  118A  2779  120A  158A  	fcall	_Lcd_Cmd
  7452     0A48                     l174:
  7453     0A48  0008               	return
  7454     0A49                     __end_of_Lcd_Set_Cursor:
  7455                           
  7456                           	psect	text26
  7457     1779                     __ptext26:	
  7458 ;; *************** function _Lcd_Cmd *****************
  7459 ;; Defined at:
  7460 ;;		line 36 in file "../PRUEBA.X/LCD.c"
  7461 ;; Parameters:    Size  Location     Type
  7462 ;;  a               1    wreg     unsigned char 
  7463 ;; Auto vars:     Size  Location     Type
  7464 ;;  a               1    3[BANK0 ] unsigned char 
  7465 ;; Return value:  Size  Location     Type
  7466 ;;                  1    wreg      void 
  7467 ;; Registers used:
  7468 ;;		wreg, status,2, status,0, pclath, cstack
  7469 ;; Tracked objects:
  7470 ;;		On entry : 0/0
  7471 ;;		On exit  : 0/0
  7472 ;;		Unchanged: 0/0
  7473 ;; Data sizes:     COMMON   BANK0   BANK1   BANK3   BANK2
  7474 ;;      Params:         0       0       0       0       0
  7475 ;;      Locals:         0       1       0       0       0
  7476 ;;      Temps:          0       2       0       0       0
  7477 ;;      Totals:         0       3       0       0       0
  7478 ;;Total ram usage:        3 bytes
  7479 ;; Hardware stack levels used: 1
  7480 ;; Hardware stack levels required when called: 3
  7481 ;; This function calls:
  7482 ;;		_Lcd_Port
  7483 ;; This function is called by:
  7484 ;;		_Lcd_Set_Cursor
  7485 ;;		_Lcd_Init
  7486 ;;		_Lcd_Clear
  7487 ;;		_Lcd_Shift_Right
  7488 ;;		_Lcd_Shift_Left
  7489 ;; This function uses a non-reentrant model
  7490 ;;
  7491                           
  7492     1779                     _Lcd_Cmd:	
  7493                           ;psect for function _Lcd_Cmd
  7494                           
  7495                           
  7496                           ;incstack = 0
  7497                           ; Regs used in _Lcd_Cmd: [wreg+status,2+status,0+pclath+cstack]
  7498                           ;Lcd_Cmd@a stored from wreg
  7499     1779  1283               	bcf	3,5	;RP0=0, select bank0
  7500     177A  1303               	bcf	3,6	;RP1=0, select bank0
  7501     177B  00A3               	movwf	Lcd_Cmd@a
  7502     177C                     l3131:
  7503                           
  7504                           ;../PRUEBA.X/LCD.c: 36: void Lcd_Cmd(char a);../PRUEBA.X/LCD.c: 37: {;../PRUEBA.X/LCD.c:
      +                           38:     PORTDbits.RD2 = 0;
  7505     177C  1108               	bcf	8,2	;volatile
  7506     177D                     l3133:
  7507                           
  7508                           ;../PRUEBA.X/LCD.c: 39:     Lcd_Port(a);
  7509     177D  0823               	movf	Lcd_Cmd@a,w
  7510     177E  120A  118A  27DE  160A  118A  	fcall	_Lcd_Port
  7511     1783                     l3135:
  7512                           
  7513                           ;../PRUEBA.X/LCD.c: 40:     RD3 = 1;
  7514     1783  1283               	bcf	3,5	;RP0=0, select bank0
  7515     1784  1303               	bcf	3,6	;RP1=0, select bank0
  7516     1785  1588               	bsf	8,3	;volatile
  7517     1786                     l3137:
  7518                           
  7519                           ;../PRUEBA.X/LCD.c: 41:     _delay((unsigned long)((4)*(8000000/4000.0)));
  7520     1786  300B               	movlw	11
  7521     1787  1283               	bcf	3,5	;RP0=0, select bank0
  7522     1788  1303               	bcf	3,6	;RP1=0, select bank0
  7523     1789  00A2               	movwf	??_Lcd_Cmd+1
  7524     178A  3061               	movlw	97
  7525     178B  00A1               	movwf	??_Lcd_Cmd
  7526     178C                     u4787:
  7527     178C  0BA1               	decfsz	??_Lcd_Cmd,f
  7528     178D  2F8C               	goto	u4787
  7529     178E  0BA2               	decfsz	??_Lcd_Cmd+1,f
  7530     178F  2F8C               	goto	u4787
  7531     1790  2F91               	nop2
  7532     1791                     l3139:
  7533                           
  7534                           ;../PRUEBA.X/LCD.c: 42:     RD3 = 0;
  7535     1791  1283               	bcf	3,5	;RP0=0, select bank0
  7536     1792  1303               	bcf	3,6	;RP1=0, select bank0
  7537     1793  1188               	bcf	8,3	;volatile
  7538     1794                     l165:
  7539     1794  0008               	return
  7540     1795                     __end_of_Lcd_Cmd:
  7541                           
  7542                           	psect	text27
  7543     07DE                     __ptext27:	
  7544 ;; *************** function _Lcd_Port *****************
  7545 ;; Defined at:
  7546 ;;		line 13 in file "../PRUEBA.X/LCD.c"
  7547 ;; Parameters:    Size  Location     Type
  7548 ;;  a               1    wreg     unsigned char 
  7549 ;; Auto vars:     Size  Location     Type
  7550 ;;  a               1    0[BANK0 ] unsigned char 
  7551 ;; Return value:  Size  Location     Type
  7552 ;;                  1    wreg      void 
  7553 ;; Registers used:
  7554 ;;		wreg
  7555 ;; Tracked objects:
  7556 ;;		On entry : 0/0
  7557 ;;		On exit  : 0/0
  7558 ;;		Unchanged: 0/0
  7559 ;; Data sizes:     COMMON   BANK0   BANK1   BANK3   BANK2
  7560 ;;      Params:         0       0       0       0       0
  7561 ;;      Locals:         0       1       0       0       0
  7562 ;;      Temps:          0       0       0       0       0
  7563 ;;      Totals:         0       1       0       0       0
  7564 ;;Total ram usage:        1 bytes
  7565 ;; Hardware stack levels used: 1
  7566 ;; Hardware stack levels required when called: 2
  7567 ;; This function calls:
  7568 ;;		Nothing
  7569 ;; This function is called by:
  7570 ;;		_Lcd_Cmd
  7571 ;;		_Lcd_Init
  7572 ;;		_Lcd_Write_Char
  7573 ;; This function uses a non-reentrant model
  7574 ;;
  7575                           
  7576     07DE                     _Lcd_Port:	
  7577                           ;psect for function _Lcd_Port
  7578                           
  7579                           
  7580                           ;incstack = 0
  7581                           ; Regs used in _Lcd_Port: [wreg]
  7582                           ;Lcd_Port@a stored from wreg
  7583     07DE  1283               	bcf	3,5	;RP0=0, select bank0
  7584     07DF  1303               	bcf	3,6	;RP1=0, select bank0
  7585     07E0  00A0               	movwf	Lcd_Port@a
  7586     07E1                     l3121:
  7587                           
  7588                           ;../PRUEBA.X/LCD.c: 13: void Lcd_Port(char a);../PRUEBA.X/LCD.c: 14: {;../PRUEBA.X/LCD.c
      +                          : 15:     if (a & 1)
  7589     07E1  1C20               	btfss	Lcd_Port@a,0
  7590     07E2  2FE4               	goto	u3831
  7591     07E3  2FE5               	goto	u3830
  7592     07E4                     u3831:
  7593     07E4  2FE7               	goto	l154
  7594     07E5                     u3830:
  7595     07E5                     l3123:
  7596                           
  7597                           ;../PRUEBA.X/LCD.c: 16:         RD4 = 1;
  7598     07E5  1608               	bsf	8,4	;volatile
  7599     07E6  2FE8               	goto	l155
  7600     07E7                     l154:	
  7601                           ;../PRUEBA.X/LCD.c: 17:     else
  7602                           
  7603                           
  7604                           ;../PRUEBA.X/LCD.c: 18:         RD4 = 0;
  7605     07E7  1208               	bcf	8,4	;volatile
  7606     07E8                     l155:
  7607                           
  7608                           ;../PRUEBA.X/LCD.c: 20:     if (a & 2)
  7609     07E8  1CA0               	btfss	Lcd_Port@a,1
  7610     07E9  2FEB               	goto	u3841
  7611     07EA  2FEC               	goto	u3840
  7612     07EB                     u3841:
  7613     07EB  2FEE               	goto	l156
  7614     07EC                     u3840:
  7615     07EC                     l3125:
  7616                           
  7617                           ;../PRUEBA.X/LCD.c: 21:         RD5 = 1;
  7618     07EC  1688               	bsf	8,5	;volatile
  7619     07ED  2FEF               	goto	l157
  7620     07EE                     l156:	
  7621                           ;../PRUEBA.X/LCD.c: 22:     else
  7622                           
  7623                           
  7624                           ;../PRUEBA.X/LCD.c: 23:         RD5 = 0;
  7625     07EE  1288               	bcf	8,5	;volatile
  7626     07EF                     l157:
  7627                           
  7628                           ;../PRUEBA.X/LCD.c: 25:     if (a & 4)
  7629     07EF  1D20               	btfss	Lcd_Port@a,2
  7630     07F0  2FF2               	goto	u3851
  7631     07F1  2FF3               	goto	u3850
  7632     07F2                     u3851:
  7633     07F2  2FF5               	goto	l158
  7634     07F3                     u3850:
  7635     07F3                     l3127:
  7636                           
  7637                           ;../PRUEBA.X/LCD.c: 26:         RD6 = 1;
  7638     07F3  1708               	bsf	8,6	;volatile
  7639     07F4  2FF6               	goto	l159
  7640     07F5                     l158:	
  7641                           ;../PRUEBA.X/LCD.c: 27:     else
  7642                           
  7643                           
  7644                           ;../PRUEBA.X/LCD.c: 28:         RD6 = 0;
  7645     07F5  1308               	bcf	8,6	;volatile
  7646     07F6                     l159:
  7647                           
  7648                           ;../PRUEBA.X/LCD.c: 30:     if (a & 8)
  7649     07F6  1DA0               	btfss	Lcd_Port@a,3
  7650     07F7  2FF9               	goto	u3861
  7651     07F8  2FFA               	goto	u3860
  7652     07F9                     u3861:
  7653     07F9  2FFC               	goto	l160
  7654     07FA                     u3860:
  7655     07FA                     l3129:
  7656                           
  7657                           ;../PRUEBA.X/LCD.c: 31:         RD7 = 1;
  7658     07FA  1788               	bsf	8,7	;volatile
  7659     07FB  2FFD               	goto	l162
  7660     07FC                     l160:	
  7661                           ;../PRUEBA.X/LCD.c: 32:     else
  7662                           
  7663                           
  7664                           ;../PRUEBA.X/LCD.c: 33:         RD7 = 0;
  7665     07FC  1388               	bcf	8,7	;volatile
  7666     07FD                     l162:
  7667     07FD  0008               	return
  7668     07FE                     __end_of_Lcd_Port:
  7669                           
  7670                           	psect	text28
  7671     0A95                     __ptext28:	
  7672 ;; *************** function _isr *****************
  7673 ;; Defined at:
  7674 ;;		line 69 in file "main.c"
  7675 ;; Parameters:    Size  Location     Type
  7676 ;;		None
  7677 ;; Auto vars:     Size  Location     Type
  7678 ;;		None
  7679 ;; Return value:  Size  Location     Type
  7680 ;;                  1    wreg      void 
  7681 ;; Registers used:
  7682 ;;		wreg, status,2, status,0, pclath, cstack
  7683 ;; Tracked objects:
  7684 ;;		On entry : 0/0
  7685 ;;		On exit  : 0/0
  7686 ;;		Unchanged: 0/0
  7687 ;; Data sizes:     COMMON   BANK0   BANK1   BANK3   BANK2
  7688 ;;      Params:         0       0       0       0       0
  7689 ;;      Locals:         0       0       0       0       0
  7690 ;;      Temps:          2       0       0       0       0
  7691 ;;      Totals:         2       0       0       0       0
  7692 ;;Total ram usage:        2 bytes
  7693 ;; Hardware stack levels used: 1
  7694 ;; Hardware stack levels required when called: 1
  7695 ;; This function calls:
  7696 ;;		_adc_read
  7697 ;;		i1_spiWrite
  7698 ;; This function is called by:
  7699 ;;		Interrupt level 1
  7700 ;; This function uses a non-reentrant model
  7701 ;;
  7702                           
  7703     0A95                     _isr:	
  7704                           ;psect for function _isr
  7705                           
  7706     0A95                     i1l2941:
  7707                           
  7708                           ;main.c: 71:     if(PORTCbits.RC0 == 0){
  7709     0A95  1283               	bcf	3,5	;RP0=0, select bank0
  7710     0A96  1303               	bcf	3,6	;RP1=0, select bank0
  7711     0A97  1807               	btfsc	7,0	;volatile
  7712     0A98  2A9A               	goto	u370_21
  7713     0A99  2A9B               	goto	u370_20
  7714     0A9A                     u370_21:
  7715     0A9A  2ADE               	goto	i1l108
  7716     0A9B                     u370_20:
  7717     0A9B                     i1l2943:
  7718                           
  7719                           ;main.c: 72:         if(PIR1bits.SSPIF){
  7720     0A9B  1D8C               	btfss	12,3	;volatile
  7721     0A9C  2A9E               	goto	u371_21
  7722     0A9D  2A9F               	goto	u371_20
  7723     0A9E                     u371_21:
  7724     0A9E  2AC0               	goto	i1l2959
  7725     0A9F                     u371_20:
  7726     0A9F                     i1l2945:
  7727                           
  7728                           ;main.c: 73:             if (bandera == 1){
  7729     0A9F  0374               	decf	_bandera,w
  7730     0AA0  1D03               	btfss	3,2
  7731     0AA1  2AA3               	goto	u372_21
  7732     0AA2  2AA4               	goto	u372_20
  7733     0AA3                     u372_21:
  7734     0AA3  2AAE               	goto	i1l2951
  7735     0AA4                     u372_20:
  7736     0AA4                     i1l2947:
  7737                           
  7738                           ;main.c: 74:                 spiWrite(POT1_ENVIO);
  7739     0AA4  1683               	bsf	3,5	;RP0=1, select bank1
  7740     0AA5  1303               	bcf	3,6	;RP1=0, select bank1
  7741     0AA6  0848               	movf	_POT1_ENVIO^(0+128),w
  7742     0AA7  160A  118A  2734  120A  158A  	fcall	i1_spiWrite
  7743     0AAC                     i1l2949:
  7744                           
  7745                           ;main.c: 75:                 bandera = 0;
  7746     0AAC  01F4               	clrf	_bandera
  7747                           
  7748                           ;main.c: 76:             }
  7749     0AAD  2ABD               	goto	i1l2957
  7750     0AAE                     i1l2951:
  7751     0AAE  0874               	movf	_bandera,w
  7752     0AAF  1D03               	btfss	3,2
  7753     0AB0  2AB2               	goto	u373_21
  7754     0AB1  2AB3               	goto	u373_20
  7755     0AB2                     u373_21:
  7756     0AB2  2ABD               	goto	i1l2957
  7757     0AB3                     u373_20:
  7758     0AB3                     i1l2953:
  7759                           
  7760                           ;main.c: 78:                 spiWrite(POT2_ENVIO);
  7761     0AB3  1683               	bsf	3,5	;RP0=1, select bank1
  7762     0AB4  1303               	bcf	3,6	;RP1=0, select bank1
  7763     0AB5  0847               	movf	_POT2_ENVIO^(0+128),w
  7764     0AB6  160A  118A  2734  120A  158A  	fcall	i1_spiWrite
  7765     0ABB                     i1l2955:
  7766                           
  7767                           ;main.c: 79:                 bandera = 1;
  7768     0ABB  01F4               	clrf	_bandera
  7769     0ABC  0AF4               	incf	_bandera,f
  7770     0ABD                     i1l2957:
  7771                           
  7772                           ;main.c: 81:             PIR1bits.SSPIF = 0;
  7773     0ABD  1283               	bcf	3,5	;RP0=0, select bank0
  7774     0ABE  1303               	bcf	3,6	;RP1=0, select bank0
  7775     0ABF  118C               	bcf	12,3	;volatile
  7776     0AC0                     i1l2959:
  7777                           
  7778                           ;main.c: 83:         if(PIR1bits.ADIF){
  7779     0AC0  1F0C               	btfss	12,6	;volatile
  7780     0AC1  2AC3               	goto	u374_21
  7781     0AC2  2AC4               	goto	u374_20
  7782     0AC3                     u374_21:
  7783     0AC3  2ADE               	goto	i1l108
  7784     0AC4                     u374_20:
  7785     0AC4                     i1l2961:
  7786                           
  7787                           ;main.c: 84:             if(canal_ADC == 0){
  7788     0AC4  0873               	movf	_canal_ADC,w
  7789     0AC5  1D03               	btfss	3,2
  7790     0AC6  2AC8               	goto	u375_21
  7791     0AC7  2AC9               	goto	u375_20
  7792     0AC8                     u375_21:
  7793     0AC8  2AD1               	goto	i1l2965
  7794     0AC9                     u375_20:
  7795     0AC9                     i1l2963:
  7796                           
  7797                           ;main.c: 85:                 POT1 = adc_read();
  7798     0AC9  160A  118A  2757  120A  158A  	fcall	_adc_read
  7799     0ACE  0876               	movf	?_adc_read,w
  7800     0ACF  00F2               	movwf	_POT1
  7801                           
  7802                           ;main.c: 86:             }
  7803     0AD0  2ADE               	goto	i1l108
  7804     0AD1                     i1l2965:
  7805     0AD1  0373               	decf	_canal_ADC,w
  7806     0AD2  1D03               	btfss	3,2
  7807     0AD3  2AD5               	goto	u376_21
  7808     0AD4  2AD6               	goto	u376_20
  7809     0AD5                     u376_21:
  7810     0AD5  2ADE               	goto	i1l99
  7811     0AD6                     u376_20:
  7812     0AD6                     i1l2967:
  7813                           
  7814                           ;main.c: 88:                 POT2 = adc_read();
  7815     0AD6  160A  118A  2757  120A  158A  	fcall	_adc_read
  7816     0ADB  0876               	movf	?_adc_read,w
  7817     0ADC  00F1               	movwf	_POT2
  7818     0ADD  2ADE               	goto	i1l108
  7819     0ADE                     i1l99:	
  7820                           ;main.c: 91:     }
  7821                           
  7822     0ADE                     i1l108:
  7823     0ADE  087B               	movf	??_isr+1,w
  7824     0ADF  008A               	movwf	10
  7825     0AE0  0E7A               	swapf	??_isr,w
  7826     0AE1  0083               	movwf	3
  7827     0AE2  0EFE               	swapf	btemp,f
  7828     0AE3  0E7E               	swapf	btemp,w
  7829     0AE4  0009               	retfie
  7830     0AE5                     __end_of_isr:
  7831                           
  7832                           	psect	intentry
  7833     0004                     __pintentry:	
  7834                           ;incstack = 0
  7835                           ; Regs used in _isr: [wreg+status,2+status,0+pclath+cstack]
  7836                           
  7837     0004                     interrupt_function:
  7838     007E                     saved_w	set	btemp
  7839     0004  00FE               	movwf	btemp
  7840     0005  0E03               	swapf	3,w
  7841     0006  00FA               	movwf	??_isr
  7842     0007  080A               	movf	10,w
  7843     0008  00FB               	movwf	??_isr+1
  7844     0009  120A  158A  2A95   	ljmp	_isr
  7845                           
  7846                           	psect	text29
  7847     1734                     __ptext29:	
  7848 ;; *************** function i1_spiWrite *****************
  7849 ;; Defined at:
  7850 ;;		line 33 in file "../PRUEBA.X/SPI.c"
  7851 ;; Parameters:    Size  Location     Type
  7852 ;;  dat             1    wreg     unsigned char 
  7853 ;; Auto vars:     Size  Location     Type
  7854 ;;  dat             1    0[COMMON] unsigned char 
  7855 ;; Return value:  Size  Location     Type
  7856 ;;                  1    wreg      void 
  7857 ;; Registers used:
  7858 ;;		wreg
  7859 ;; Tracked objects:
  7860 ;;		On entry : 0/0
  7861 ;;		On exit  : 0/0
  7862 ;;		Unchanged: 0/0
  7863 ;; Data sizes:     COMMON   BANK0   BANK1   BANK3   BANK2
  7864 ;;      Params:         0       0       0       0       0
  7865 ;;      Locals:         1       0       0       0       0
  7866 ;;      Temps:          0       0       0       0       0
  7867 ;;      Totals:         1       0       0       0       0
  7868 ;;Total ram usage:        1 bytes
  7869 ;; Hardware stack levels used: 1
  7870 ;; This function calls:
  7871 ;;		Nothing
  7872 ;; This function is called by:
  7873 ;;		_isr
  7874 ;; This function uses a non-reentrant model
  7875 ;;
  7876                           
  7877     1734                     i1_spiWrite:	
  7878                           ;psect for function i1_spiWrite
  7879                           
  7880                           
  7881                           ;incstack = 0
  7882                           ; Regs used in i1_spiWrite: [wreg]
  7883                           ;i1spiWrite@dat stored from wreg
  7884     1734  00F6               	movwf	i1spiWrite@dat
  7885     1735                     i1l2939:
  7886                           
  7887                           ;../PRUEBA.X/SPI.c: 33: void spiWrite(char dat);../PRUEBA.X/SPI.c: 34: {;../PRUEBA.X/SPI
      +                          .c: 35:     SSPBUF = dat;
  7888     1735  0876               	movf	i1spiWrite@dat,w
  7889     1736  1283               	bcf	3,5	;RP0=0, select bank0
  7890     1737  1303               	bcf	3,6	;RP1=0, select bank0
  7891     1738  0093               	movwf	19	;volatile
  7892     1739                     i1l218:
  7893     1739  0008               	return
  7894     173A                     __end_ofi1_spiWrite:
  7895                           
  7896                           	psect	text30
  7897     1757                     __ptext30:	
  7898 ;; *************** function _adc_read *****************
  7899 ;; Defined at:
  7900 ;;		line 47 in file "adc.c"
  7901 ;; Parameters:    Size  Location     Type
  7902 ;;		None
  7903 ;; Auto vars:     Size  Location     Type
  7904 ;;		None
  7905 ;; Return value:  Size  Location     Type
  7906 ;;                  2    0[COMMON] int 
  7907 ;; Registers used:
  7908 ;;		wreg
  7909 ;; Tracked objects:
  7910 ;;		On entry : 0/0
  7911 ;;		On exit  : 0/0
  7912 ;;		Unchanged: 0/0
  7913 ;; Data sizes:     COMMON   BANK0   BANK1   BANK3   BANK2
  7914 ;;      Params:         2       0       0       0       0
  7915 ;;      Locals:         0       0       0       0       0
  7916 ;;      Temps:          2       0       0       0       0
  7917 ;;      Totals:         4       0       0       0       0
  7918 ;;Total ram usage:        4 bytes
  7919 ;; Hardware stack levels used: 1
  7920 ;; This function calls:
  7921 ;;		Nothing
  7922 ;; This function is called by:
  7923 ;;		_isr
  7924 ;; This function uses a non-reentrant model
  7925 ;;
  7926                           
  7927     1757                     _adc_read:	
  7928                           ;psect for function _adc_read
  7929                           
  7930     1757                     i1l2771:	
  7931                           ;incstack = 0
  7932                           ; Regs used in _adc_read: [wreg]
  7933                           
  7934                           
  7935                           ;adc.c: 48:     PIR1bits.ADIF = 0;
  7936     1757  1283               	bcf	3,5	;RP0=0, select bank0
  7937     1758  1303               	bcf	3,6	;RP1=0, select bank0
  7938     1759  130C               	bcf	12,6	;volatile
  7939     175A                     i1l2773:
  7940                           
  7941                           ;adc.c: 49:     return (ADRESH);
  7942     175A  081E               	movf	30,w	;volatile
  7943     175B  00F8               	movwf	??_adc_read
  7944     175C  01F9               	clrf	??_adc_read+1
  7945     175D  0878               	movf	??_adc_read,w
  7946     175E  00F6               	movwf	?_adc_read
  7947     175F  0879               	movf	??_adc_read+1,w
  7948     1760  00F7               	movwf	?_adc_read+1
  7949     1761                     i1l301:
  7950     1761  0008               	return
  7951     1762                     __end_of_adc_read:
  7952     007E                     btemp	set	126	;btemp
  7953     007E                     wtemp0	set	126
  7954                           
  7955                           	psect	idloc
  7956                           
  7957                           ;Config register IDLOC0 @ 0x2000
  7958                           ;	unspecified, using default values
  7959     2000                     	org	8192
  7960     2000  3FFF               	dw	16383
  7961                           
  7962                           ;Config register IDLOC1 @ 0x2001
  7963                           ;	unspecified, using default values
  7964     2001                     	org	8193
  7965     2001  3FFF               	dw	16383
  7966                           
  7967                           ;Config register IDLOC2 @ 0x2002
  7968                           ;	unspecified, using default values
  7969     2002                     	org	8194
  7970     2002  3FFF               	dw	16383
  7971                           
  7972                           ;Config register IDLOC3 @ 0x2003
  7973                           ;	unspecified, using default values
  7974     2003                     	org	8195
  7975     2003  3FFF               	dw	16383
  7976                           
  7977                           	psect	config
  7978                           
  7979                           ;Config register CONFIG1 @ 0x2007
  7980                           ;	Oscillator Selection bits
  7981                           ;	FOSC = INTRC_NOCLKOUT, INTOSCIO oscillator: I/O function on RA6/OSC2/CLKOUT pin, I/O f
      +                          unction on RA7/OSC1/CLKIN
  7982                           ;	Watchdog Timer Enable bit
  7983                           ;	WDTE = OFF, WDT disabled and can be enabled by SWDTEN bit of the WDTCON register
  7984                           ;	Power-up Timer Enable bit
  7985                           ;	PWRTE = OFF, PWRT disabled
  7986                           ;	RE3/MCLR pin function select bit
  7987                           ;	MCLRE = OFF, RE3/MCLR pin function is digital input, MCLR internally tied to VDD
  7988                           ;	Code Protection bit
  7989                           ;	CP = OFF, Program memory code protection is disabled
  7990                           ;	Data Code Protection bit
  7991                           ;	CPD = OFF, Data memory code protection is disabled
  7992                           ;	Brown Out Reset Selection bits
  7993                           ;	BOREN = OFF, BOR disabled
  7994                           ;	Internal External Switchover bit
  7995                           ;	IESO = OFF, Internal/External Switchover mode is disabled
  7996                           ;	Fail-Safe Clock Monitor Enabled bit
  7997                           ;	FCMEN = OFF, Fail-Safe Clock Monitor is disabled
  7998                           ;	Low Voltage Programming Enable bit
  7999                           ;	LVP = OFF, RB3 pin has digital I/O, HV on MCLR must be used for programming
  8000                           ;	In-Circuit Debugger Mode bit
  8001                           ;	DEBUG = 0x1, unprogramme  8002     2007                     	org	8199
  8003     2007  20D4               	dw	8404
  8004                           
  8005                           ;Config register CONFIG2 @ 0x2008
  8006                           ;	Brown-out Reset Selection bit
  8007                           ;	BOR4V = BOR40V, Brown-out Reset set to 4.0V
  8008                           ;	Flash Program Memory Self Write Enable bits
  8009                           ;	WRT = OFF, Write protection off
  8010     2008                     	org	8200
  8011     2008  3FFF               	dw	16383

Data Sizes:
    Strings     33
    Constant    10
    Data        0
    BSS         20
    Persistent  0
    Stack       0

Auto Spaces:
    Space          Size  Autos    Used
    COMMON           14      6      12
    BANK0            80     80      80
    BANK1            80     31      45
    BANK3            96      0       0
    BANK2            96      0       0

Pointer List with Targets:

    sprintf@f	PTR const unsigned char  size(1) Largest target is 18
		 -> STR_2(CODE[18]), 

    sprintf@sp	PTR unsigned char  size(1) Largest target is 1
		 -> s(BANK1[1]), 

    sprintf@ap	PTR void [1] size(1) Largest target is 2
		 -> ?_sprintf(BANK0[2]), 

    Lcd_Write_String@a	PTR unsigned char  size(2) Largest target is 15
		 -> s(BANK1[1]), STR_1(CODE[15]), 


Critical Paths under _main in COMMON

    None.

Critical Paths under _isr in COMMON

    _isr->_adc_read

Critical Paths under _main in BANK0

    _sprintf->___lwmod
    ___lwmod->___lwdiv
    _setup2->_adc_init
    _setup->_Lcd_Init
    _Lcd_Init->_Lcd_Cmd
    _map->___fltol
    ___fltol->___fladd
    ___flmul->___fldiv
    ___fldiv->___xxtofl
    ___fladd->___flmul
    _Lcd_Write_String->_Lcd_Write_Char
    _Lcd_Write_Char->_Lcd_Port
    _Lcd_Set_Cursor->_Lcd_Cmd
    _Lcd_Cmd->_Lcd_Port

Critical Paths under _isr in BANK0

    None.

Critical Paths under _main in BANK1

    _main->_map
    _map->___fltol
    ___fltol->___fladd

Critical Paths under _isr in BANK1

    None.

Critical Paths under _main in BANK3

    None.

Critical Paths under _isr in BANK3

    None.

Critical Paths under _main in BANK2

    None.

Critical Paths under _isr in BANK2

    None.

Call Graph Tables:

 ---------------------------------------------------------------------------------
 (Depth) Function   	        Calls       Base Space   Used Autos Params    Refs
 ---------------------------------------------------------------------------------
 (0) _main                                                 8     8      0   15316
                                             23 BANK1      8     8      0
                     _Lcd_Set_Cursor
                   _Lcd_Write_String
                             ___bmul
                            ___lwdiv
                          _adc_start
                                _map
                              _setup
                             _setup2
                            _spiRead
                     _spiReceiveWait
                           _spiWrite
                            _sprintf
 ---------------------------------------------------------------------------------
 (1) _sprintf                                             27    18      9    2015
                                             14 BANK0     19    10      9
                            ___lwdiv
                            ___lwmod
 ---------------------------------------------------------------------------------
 (2) ___lwmod                                              6     2      4     412
                                              8 BANK0      6     2      4
                            ___lwdiv (ARG)
 ---------------------------------------------------------------------------------
 (2) ___lwdiv                                              8     4      4     781
                                              0 BANK0      8     4      4
 ---------------------------------------------------------------------------------
 (1) _spiWrite                                             1     1      0      31
                                              0 BANK0      1     1      0
 ---------------------------------------------------------------------------------
 (1) _spiReceiveWait                                       0     0      0       0
 ---------------------------------------------------------------------------------
 (1) _spiRead                                              0     0      0       0
            _spiReceiveWait@SPI$F467
 ---------------------------------------------------------------------------------
 (2) _spiReceiveWait@SPI$F467                              0     0      0       0
 ---------------------------------------------------------------------------------
 (1) _setup2                                               0     0      0    1030
                           _adc_init
                       _init_osc_MHz
                            _spiInit
 ---------------------------------------------------------------------------------
 (2) _adc_init                                             5     3      2     273
                                              0 BANK0      5     3      2
 ---------------------------------------------------------------------------------
 (1) _setup                                                0     0      0    1036
                           _Lcd_Init
                       _init_osc_MHz
                            _spiInit
 ---------------------------------------------------------------------------------
 (2) _spiInit                                              4     1      3     726
                                              0 BANK0      4     1      3
 ---------------------------------------------------------------------------------
 (2) _init_osc_MHz                                         3     3      0      31
                                              0 BANK0      3     3      0
 ---------------------------------------------------------------------------------
 (2) _Lcd_Init                                             2     2      0     279
                                              4 BANK0      2     2      0
                            _Lcd_Cmd
                           _Lcd_Port
 ---------------------------------------------------------------------------------
 (1) _map                                                  7     1      6    8756
                                             16 BANK1      7     1      6
                            ___fladd
                            ___fldiv
                            ___flmul
                            ___fltol
                           ___xxtofl
 ---------------------------------------------------------------------------------
 (2) ___xxtofl                                            14    10      4     626
                                              0 BANK0     14    10      4
 ---------------------------------------------------------------------------------
 (2) ___fltol                                             10     6      4     305
                                             78 BANK0      2     2      0
                                              8 BANK1      8     4      4
                            ___fladd (ARG)
                            ___fldiv (ARG)
                            ___flmul (ARG)
                           ___xxtofl (ARG)
 ---------------------------------------------------------------------------------
 (2) ___flmul                                             26    18      8    3353
                                             40 BANK0     26    18      8
                          __Umul8_16
                            ___fldiv (ARG)
                           ___xxtofl (ARG)
 ---------------------------------------------------------------------------------
 (3) __Umul8_16                                            9     7      2     980
                                              0 BANK0      9     7      2
 ---------------------------------------------------------------------------------
 (2) ___fldiv                                             26    18      8    1273
                                             14 BANK0     26    18      8
                           ___xxtofl (ARG)
 ---------------------------------------------------------------------------------
 (2) ___fladd                                             20    12      8    2262
                                             66 BANK0     12     4      8
                                              0 BANK1      8     8      0
                            ___fldiv (ARG)
                            ___flmul (ARG)
                           ___xxtofl (ARG)
 ---------------------------------------------------------------------------------
 (1) _adc_start                                            2     2      0      62
                                              0 BANK0      2     2      0
 ---------------------------------------------------------------------------------
 (1) ___bmul                                               4     3      1     316
                                              0 BANK0      4     3      1
 ---------------------------------------------------------------------------------
 (1) _Lcd_Write_String                                     7     5      2     564
                                              5 BANK0      7     5      2
                     _Lcd_Write_Char
 ---------------------------------------------------------------------------------
 (2) _Lcd_Write_Char                                       4     4      0     254
                                              1 BANK0      4     4      0
                           _Lcd_Port
 ---------------------------------------------------------------------------------
 (1) _Lcd_Set_Cursor                                       6     5      1     725
                                              4 BANK0      6     5      1
                            _Lcd_Cmd
 ---------------------------------------------------------------------------------
 (3) _Lcd_Cmd                                              3     3      0     155
                                              1 BANK0      3     3      0
                           _Lcd_Port
 ---------------------------------------------------------------------------------
 (3) _Lcd_Port                                             1     1      0     124
                                              0 BANK0      1     1      0
 ---------------------------------------------------------------------------------
 Estimated maximum stack depth 3
 ---------------------------------------------------------------------------------
 (Depth) Function   	        Calls       Base Space   Used Autos Params    Refs
 ---------------------------------------------------------------------------------
 (5) _isr                                                  2     2      0      22
                                              4 COMMON     2     2      0
                           _adc_read
                         i1_spiWrite
 ---------------------------------------------------------------------------------
 (6) i1_spiWrite                                           1     1      0      22
                                              0 COMMON     1     1      0
 ---------------------------------------------------------------------------------
 (6) _adc_read                                             4     2      2       0
                                              0 COMMON     4     2      2
 ---------------------------------------------------------------------------------
 Estimated maximum stack depth 6
 ---------------------------------------------------------------------------------

 Call Graph Graphs:

 _main (ROOT)
   _Lcd_Set_Cursor
     _Lcd_Cmd
       _Lcd_Port
   _Lcd_Write_String
     _Lcd_Write_Char
       _Lcd_Port
   ___bmul
   ___lwdiv
   _adc_start
   _map
     ___fladd
       ___fldiv (ARG)
         ___xxtofl (ARG)
       ___flmul (ARG)
         __Umul8_16
         ___fldiv (ARG)
         ___xxtofl (ARG)
       ___xxtofl (ARG)
     ___fldiv
     ___flmul
     ___fltol
       ___fladd (ARG)
       ___fldiv (ARG)
       ___flmul (ARG)
       ___xxtofl (ARG)
     ___xxtofl
   _setup
     _Lcd_Init
       _Lcd_Cmd
       _Lcd_Port
     _init_osc_MHz
     _spiInit
   _setup2
     _adc_init
     _init_osc_MHz
     _spiInit
   _spiRead
     _spiReceiveWait@SPI$F467
   _spiReceiveWait
   _spiWrite
   _sprintf
     ___lwdiv
     ___lwmod
       ___lwdiv (ARG)

 _isr (ROOT)
   _adc_read
   i1_spiWrite

 Address spaces:
Name               Size   Autos  Total    Cost      Usage
BITCOMMON            E      0       0       0        0.0%
EEDATA             100      0       0       0        0.0%
NULL                 0      0       0       0        0.0%
CODE                 0      0       0       0        0.0%
COMMON               E      6       C       1       85.7%
BITSFR0              0      0       0       1        0.0%
SFR0                 0      0       0       1        0.0%
BITSFR1              0      0       0       2        0.0%
SFR1                 0      0       0       2        0.0%
STACK                0      0       0       2        0.0%
ABS                  0      0      89       3        0.0%
BITBANK0            50      0       0       4        0.0%
BITSFR3              0      0       0       4        0.0%
SFR3                 0      0       0       4        0.0%
BANK0               50     50      50       5      100.0%
BITSFR2              0      0       0       5        0.0%
SFR2                 0      0       0       5        0.0%
BITBANK1            50      0       0       6        0.0%
BANK1               50     1F      2D       7       56.2%
BITBANK3            60      0       0       8        0.0%
BANK3               60      0       0       9        0.0%
BITBANK2            60      0       0      10        0.0%
BANK2               60      0       0      11        0.0%
DATA                 0      0      89      12        0.0%


Microchip Technology PIC Macro Assembler V2.40 build 20220703182018 
Symbol Table                                                                                   Sun Aug 07 16:02:24 2022

                   ___fldiv@aexp 0047                     ___fldiv@bexp 0046                                _s 00CC  
                              pc 0002                     ___fldiv@sign 003F                   ___bmul@product 0022  
                    _SSPSTATbits 0094                               fsr 0004              __Umul8_16@word_mpld 0026  
                            l113 07AF                              l131 086E                              l212 1740  
                            l134 0925                              l215 1746                              l160 07FC  
                            l208 17AD                              l128 07DB                              l137 0D50  
                            l209 17B2                              l162 07FD                              l154 07E7  
                            l226 1756                              l218 173F                              l155 07E8  
                            l411 0E2C                              l156 07EE                              l180 08A7  
                            l157 07EF                              l165 1794                              l158 07F5  
                            l174 0A48                              l270 09FC                              l254 1747  
                            l159 07F6                              l441 1778                              l601 0BD0  
                            l177 0B42                              l257 174D                              l186 096B  
                            l290 0A94                              l611 0BD0                              l295 17D2  
                            l712 046A                              l608 0BB9                              l721 0657  
                            l298 17D6                              l714 0437                              l810 02DD  
                            l708 03D1                              l804 036D                              l733 05A3  
                            l750 0649                              l742 0623                              l751 0657  
                            l823 17ED                              l816 0361                              l729 0577  
                            l825 17FF                              l850 0C8A                              l739 05C5  
                            l780 0F75                              l764 0E83                              l861 0C54  
                            l766 0FFF                              l862 0C60                              l854 0C38  
                            l687 09B1                              l848 0BF5                              l697 08E3  
                            l786 0FE7                              l788 0FF5                              _RD3 0043  
                            _RD4 0044                              _RD5 0045                              _RD6 0046  
                            _RD7 0047                              _map 0C8B                              _isr 0A95  
                            fsr0 0004                              indf 0000                     ___flmul@aexp 0056  
                   ___flmul@bexp 005B                     ___flmul@sign 0055                     ___flmul@temp 0060  
                   ___flmul@prod 005C                     ___fltol@exp1 006F                             l2301 03E7  
                           l2311 03F1                             l2303 03E9                             l3121 07E1  
                           l2401 05B1                             l2321 03FB                             l2313 03F3  
                           l2305 03EB                             l3201 0A50                             l3123 07E5  
                           l3131 177C                             l2411 05C2                             l2403 05B3  
                           l2331 041F                             l2323 03FD                             l2315 03F5  
                           l2307 03ED                             l2251 0373                             l2171 0B5B  
                           l3203 0A55                             l3211 0A73                             l3125 07EC  
                           l3133 177D                             l2421 05E1                             l2405 05B7  
                           l2341 044D                             l2333 043B                             l2325 03FF  
                           l2317 03F7                             l2309 03EF                             l2261 038A  
                           l2253 037B                             l2501 0ECC                             l3141 17DA  
                           l3301 0032                             l2181 0B85                             l2173 0B72  
                           l2165 0B43                             l3213 0A83                             l3205 0A5A  
                           l3127 07F3                             l3135 1783                             l3231 0879  
                           l2431 063A                             l2423 061B                             l2415 05CA  
                           l2407 05B8                             l2343 045C                             l2335 0446  
                           l2319 03F9                             l2327 0401                             l2271 03A0  
                           l2263 0392                             l2255 037F                             l2511 0EF5  
                           l2503 0ED4                             l3151 17FB                             l3143 17DC  
                           l3311 0049                             l3303 0036                             l2175 0B75  
                           l2167 0B50                             l3215 0A87                             l3129 07FA  
                           l3137 1786                             l3241 089A                             l3233 0887  
                           l2441 0656                             l2433 063B                             l2425 0628  
                           l2417 05CF                             l2409 05BC                             l2361 04A6  
                           l2353 047C                             l2337 0448                             l2345 0462  
                           l2329 0402                             l2281 03B4                             l2273 03A6  
                           l2265 0393                             l2257 0380                             l2249 036E  
                           l2521 0F16                             l2513 0EF9                             l2505 0EDC  
                           l3145 17E3                             l3401 02DA                             l3321 0060  
                           l3313 004B                             l3305 0037                             l2177 0B7D  
                           l3161 09C7                             l3217 0A8A                             l3209 0A5D  
                           l3139 1791                             l3243 089D                             l3235 088A  
                           l3227 0872                             l2435 063F                             l2427 062D  
                           l2419 05DD                             l2363 04A8                             l2355 0493  
                           l2347 046E                             l2371 04C3                             l2339 044C  
                           l2283 03B9                             l2291 03C9                             l2275 03A7  
                           l2259 0385                             l2267 0395                             l2531 0F38  
                           l2523 0F24                             l2515 0EFA                             l2507 0EDE  
                           l2451 0E3B                             l2443 0E2D                             l3147 17E7  
                           l3411 02F9                             l3331 0075                             l3323 0061  
                           l3315 0053                             l3307 003C                             l2195 0BAA  
                           l2187 0B8D                             l2179 0B81                             l3163 09CE  
                           l3171 09E1                             l3155 09B5                             l3219 0A8D  
                           l3251 0970                             l3245 08A4                             l3237 0891  
                           l3229 0878                             l2437 0641                             l2429 0635  
                           l2373 04D9                             l2381 0569                             l2365 04AC  
                           l2357 0497                             l2349 0473                             l2293 03D7  
                           l2285 03BE                             l2277 03AF                             l2269 039D  
                           l2533 0F41                             l2541 0F55                             l2509 0EE3  
                           l2517 0F03                             l2525 0F28                             l2453 0E40  
                           l2461 0E50                             l2445 0E32                             l3149 17F6  
                           l3421 033F                             l3413 0312                             l3405 02E2  
                           l3341 0090                             l3333 007D                             l3325 0066  
                           l3317 0058                             l3309 0041                             l2197 0BBE  
                           l2189 0BA3                             l3165 09D3                             l3157 09B9  
                           l3181 17A5                             l3261 0988                             l3253 0976  
                           l3501 0D68                             l3239 0894                             l2439 0652  
                           l2391 059C                             l2383 057F                             l2375 054B  
                           l2367 04AD                             l2359 049B                             l2295 03DB  
                           l2287 03C6                             l2279 03B3                             l2543 0F59  
                           l2535 0F45                             l2527 0F2E                             l2519 0F15  
                           l2471 0E66                             l2463 0E58                             l2455 0E45  
                           l2447 0E36                             l3431 035C                             l3423 0349  
                           l3407 02E7                             l3415 0318                             l3351 010C  
                           l3343 009E                             l3335 0082                             l3327 006B  
                           l3319 005C                             l2199 0BC3                             l3191 0AF5  
                           l3167 09DA                             l3159 09C0                             l3183 17A7  
                           l3247 1740                             l3263 0999                             l3255 0979  
                           l3271 09AD                             l3511 0D99                             l3503 0D85  
                           l2393 05A2                             l2385 0584                             l2377 0555  
                           l2369 04BC                             l2297 03E3                             l2289 03C7  
                           l2561 0FAA                             l2553 0F7A                             l2545 0F5A  
                           l2537 0F46                             l2529 0F36                             l2473 0E6B  
                           l2481 0E7B                             l2465 0E5D                             l2457 0E4D  
                           l2449 0E3A                             l3433 0365                             l3425 034B  
                           l3417 0325                             l3409 02F5                             l3361 0178  
                           l3353 0128                             l3345 00AB                             l3337 0087  
                           l3329 0073                             l3193 0B05                             l3185 17AC  
                           l3177 1798                             l3441 0854                             l3265 099F  
                           l3257 0980                             l3249 096C                             l3281 08BA  
                           l3513 0D9E                             l3505 0D8D                             l3601 0658  
                           l3451 0A05                             l2395 05A7                             l2379 055A  
                           l2299 03E5                             l2571 0FDE                             l2555 0F7F  
                           l2563 0FB0                             l2547 0F5E                             l2539 0F4F  
                           l2483 0E8B                             l2491 0EA4                             l2475 0E70  
                           l2467 0E61                             l2459 0E4E                             l3427 0357  
                           l3419 0330                             l3371 0202                             l3363 0186  
                           l3355 0144                             l3347 00C6                             l2731 0BED  
                           l3195 0B0B                             l3187 0AE5                             l3179 17A1  
                           l3443 0858                             l3267 09A0                             l3259 0984  
                           l3291 08D9                             l3283 08BE                             l3275 08A8  
                           l3531 0DD5                             l3523 0DBC                             l3507 0D91  
                           l3611 067C                             l3603 065C                             l3461 0A2A  
                           l3453 0A12                             l2397 05AA                             l2389 058D  
                           l2573 0FE6                             l2565 0FBD                             l2557 0F8D  
                           l2549 0F72                             l2493 0EA9                             l2485 0E97  
                           l2477 0E78                             l2469 0E65                             l3429 035B  
                           l3381 0292                             l3373 0210                             l3365 01A3  
                           l3357 014D                             l3349 00E2                             l2741 0C16  
                           l2733 0BFD                             l2725 0BD4                             l3189 0AEB  
                           l3445 085E                             l3197 0A4C                             l3437 173D  
                           l3269 09A7                             l3285 08C2                             l3277 08B0  
                           l3293 08DF                             l3533 0DD8                             l3525 0DC6  
                           l3509 0D95                             l3541 0E18                             l3621 0697  
                           l3613 0682                             l3605 0662                             l3463 0A37  
                           l3455 0A15                             l3471 092B                             l2399 05AC  
                           l2575 0FEB                             l2567 0FCB                             l2559 0F91  
                           l2487 0E9B                             l2479 0E79                             l3391 02B7  
                           l3383 02A0                             l3375 023B                             l3367 01BA  
                           l3359 015B                             l2751 0C4A                             l2743 0C1D  
                           l2727 0BD9                             l3447 0869                             l3439 083F  
                           l3199 0A4D                             l3551 08E4                             l3287 08CC  
                           l3279 08B3                             l3535 0E06                             l3527 0DCC  
                           l3519 0DA0                             l3543 0E28                             l3631 06B9  
                           l3623 06A1                             l3615 0687                             l3607 0667  
                           l3465 0A3A                             l3457 0A1B                             l3449 0A00  
                           l3473 0947                             l2577 0FEF                             l2569 0FDA  
                           l2497 0EB2                             l3385 02A9                             l3393 02BD  
                           l3377 0261                             l3369 01D7                             l3297 0029  
                           l2761 0C7D                             l2753 0C4E                             l2745 0C21  
                           l2737 0C06                             l2729 0BDD                             l3561 0901  
                           l3553 08E7                             l3481 1753                             l3289 08D2  
                           l3537 0E0B                             l3529 0DD1                             l3633 06BE  
                           l3641 0707                             l3625 06A6                             l3617 068A  
                           l3609 0671                             l3467 0A40                             l3459 0A24  
                           l3475 094F                             l2579 0FF1                             l2499 0EC4  
                           l3395 02C1                             l3387 02AD                             l3379 0289  
                           l3299 002E                             l2763 0C81                             l2755 0C58  
                           l2747 0C2F                             l2739 0C09                             l3571 0913  
                           l3563 090B                             l3555 08E9                             l3539 0E0F  
                           l3491 0D57                             l3643 070C                             l3651 0753  
                           l3635 06C0                             l3627 06AC                             l3619 0694  
                           l3469 0926                             l3581 17C6                             l3397 02C2  
                           l3389 02AE                             l2765 0C82                             l2757 0C62  
                           l2749 0C3F                             l3485 0C8E                             l3573 0916  
                           l3565 090E                             l3557 08F7                             l3477 1747  
                           l3493 0D5D                             l3661 07BD                             l3653 0799  
                           l3645 070E                             l3637 06D9                             l3629 06B6  
                           ?_map 00B0                             l3591 176A                             l3583 17C8  
                           l3399 02C6                             l2759 0C78                             l3575 0919  
                           l3567 0911                             l3559 08FB                             l3479 174E  
                           l3751 0D7A                             l3495 0D62                             l3671 07D2  
                           l3663 07C3                             l3655 07A3                             l3647 0726  
                           l3639 06F6                             l3593 176E                             l3585 17CF  
                           l3577 17B6                             l3753 0A65                             l3569 0912  
                           l3497 0D67                             l3489 0D54                             l3673 07D7  
                           l3665 07C6                             l3657 07B3                             l3649 0743  
                           l3595 1770                             l3587 1765                             l3579 17BC  
                           l3755 09EB                             l3667 07CB                             l3659 07B8  
                           l3597 1777                             l3589 1766                             l3669 07D1  
                           ?_isr 0076                             STR_1 082C                             STR_2 081A  
                           u2100 0BBE                             u2020 0B50                             u2101 0BBD  
                           u2021 0B4F                             u2110 0BC3                             u2030 0B6B  
                           u2111 0BC2                             u2040 0B85                             u2041 0B84  
                           u2050 0B8C                             u2051 0B8B                             u2035 0B66  
                           u2300 03B9                             u2301 03B8                             u2310 03BE  
                           u2070 0BA2                             u2311 03BD                             u2071 0BA1  
                           u2400 046A                             u2320 03D7                             u2080 0BA9  
                           u4000 08B0                             u2401 0469                             u2321 03D6  
                           u2081 0BA8                             u2065 0B8E                             u4001 08AF  
                           u2410 046E                             u2330 03DB                             u2250 037F  
                           u2411 046D                             u2331 03DA                             u2251 037E  
                           u2500 052A                             u2420 0473                             u2340 041F  
                           u2260 0385                             u4100 0066                             u4020 08C2  
                           u2501 052B                             u2421 0472                             u2341 041E  
                           u2261 0384                             u4101 0065                             u4021 08C1  
                           u2510 055A                             u2502 0530                             u2350 042A  
                           u2270 038A                             u4110 006B                             u4030 08CC  
                           u2511 0559                             u2503 0531                             u2431 0485  
                           u2351 0428                             u2271 0389                             u4111 006A  
                           u2095 0BAE                             u4031 08CB                             u4015 08B4  
                           u2600 05C2                             u2520 057F                             u2440 0497  
                           u2432 048C                             u2360 042B                             u2280 03A6  
                           u4120 0082                             u2601 05C1                             u2521 057E  
                           u2441 0496                             u2433 0493                             u2345 041B  
                           u2281 03A5                             u4201 0195                             u4121 0081  
                           u2610 05C9                             u2530 0584                             u2450 049B  
                           u2370 043B                             u2290 03B3                             u4202 019C  
                           u4130 0087                             u3410 0C1C                             u4050 08DF  
                           u2611 05C8                             u2531 0583                             u2451 049A  
                           u2371 043A                             u2291 03B2                             u4203 01A3  
                           u4131 0086                             u3411 0C1B                             u4051 08DE  
                           u4035 08C8                             u2700 0656                             u2620 05CF  
                           u2460 04AC                             u2380 044C                             u4060 0036  
                           u3500 0C81                             u2701 0655                             u2621 05CE  
                           u2461 04AB                             u2381 044B                             u4221 01C9  
                           u4141 00D4                             u4061 0035                             u3501 0C80  
                           u3405 0C0E                             u4045 08D3                             u2630 05E1  
                           u2550 05A2                             u2710 0E3A                             u4310 02AD  
                           u4222 01D0                             u4142 00DB                             u4070 003C  
                           u3430 0C3E                             u2631 05E0                             u2551 05A1  
                           u2711 0E39                             u4311 02AC                             u4231 01F4  
                           u4223 01D7                             u4215 01A5                             u4151 00F0  
                           u4143 00E2                             u4071 003B                             u3431 0C3D  
                           u2640 05FE                             u2560 05A7                             u2480 04D9  
                           u2720 0E40                             u4400 0325                             u4232 01FB  
                           u4152 00F7                             u4080 0041                             u2561 05A6  
                           u2545 0591                             u2481 04D8                             u2721 0E3F  
                           u4401 0324                             u4305 02A2                             u4241 021F  
                           u4233 0202                             u4161 011A                             u4153 00FE  
                           u4081 0040                             u3425 0C30                    i1spiWrite@dat 0076  
                           u2650 061B                             u2570 05B1                             u2730 0E45  
                           u4410 033F                             u4330 02C1                             u4250 0247  
                           u4242 0226                             u4162 0121                             u4090 0060  
                           u3450 0C4E                             u3370 0BD9                             u2651 061A  
                           u2571 05B0                             u2491 0508                             u2483 04D5  
                           u2475 04B1                             u2395 0451                             u2731 0E44  
                           u4411 033E                             u4331 02C0                             u4243 022D  
                           u4171 0136                             u4163 0128                             u4091 005F  
                           u3451 0C4D                             u3371 0BD8                             u2660 0628  
                           u2580 05B7                             u2492 050B                             u2900 0F59  
                           u2820 0EF9                             u2740 0E65                             u4420 035B  
                           u4340 02C6                             u4172 013D                             u3460 0C54  
                           u3380 0BDD                             u4500 174D                             u2661 0627  
                           u2645 05F9                             u2581 05B6                             u2493 0512  
                           u2901 0F58                             u2821 0EF8                             u2805 0EE5  
                           u2741 0E64                             u4421 035A                             u4405 0321  
                           u4341 02C5                             u4325 02B0                             u4261 0253  
                           u4173 0144                             u3461 0C53                             u3445 0C43  
                           u3381 0BDC                             u4501 174C                             u4430 0A05  
                           u2670 062D                             u2590 05BC                             u2494 0515  
                           u2910 0F5E                             u2750 0E6B                             u4350 02DA  
                           u4270 026F                             u4262 025A                             u3470 0C58  
                           u3390 0BFD                             u4510 0D5D                             u4431 0A04  
                           u2671 062C                             u2591 05BB                             u2495 051C  
                           u2911 0F5D                             u2815 0EEE                             u2751 0E6A  
                           u4415 033B                             u4351 02D9                             u4263 0261  
                           u4255 0242                             u4191 016A                             u3471 0C57  
                           u3391 0BFC                             u4511 0D5C                             u4600 176A  
                           u2680 063A                             u2496 051F                             u2920 0F72  
                           u2840 0F15                             u2760 0E70                             u4360 02E1  
                           u4192 0171                             u3480 0C6D                             u4520 0D95  
                           u4601 1769                             u2681 0639                             u2921 0F71  
                           u2841 0F14                             u2761 0E6F                             u4361 02E0  
                           u4281 027B                             u4193 0178                             u4185 0146  
                           u4521 0D94                             u4450 0A2A                             u4610 1777  
                           u2690 063F                             u2930 0F79                             u2850 0F2E  
                           u2770 0E8B                             u4370 02E7                             u4282 0282  
                           u3490 0C7D                             u4530 0DBB                             u4451 0A29  
                           u4611 1776                             u2691 063E                             u2931 0F78  
                           u2851 0F2D                             u2835 0EFC                             u2771 0E8A  
                           u4371 02E6                             u4283 0289                             u4275 026A  
                           u3491 0C7C                             u4531 0DBA                             u2940 0F7F  
                           u2860 0F36                             u2780 0EA9                             u4380 02F9  
                           u3900 17A1                             u4540 0DC6                             u4620 0662  
                           u4445 0A0B                             u2941 0F7E                             u2861 0F35  
                           u2845 0F11                             u2781 0EA8                             u4381 02F8  
                           u3485 0C68                             u3901 17A0                             u4541 0DC5  
                           u4621 0661                             u3830 07E5                             u4470 0935  
                           u2950 0F91                             u2790 0EE3                             u4390 0308  
                           u4550 0DCC                             u4630 06BE                             u3831 07E4  
                           u2951 0F90                             u2791 0EE2                             u4295 028B  
                           u4551 0DCB                             u4535 0DB7                             u4631 06BD  
                           u3840 07EC                             u4480 0959                             u2960 0FA0  
                           u2880 0F45                             u3920 1746                             u4560 0E18  
                           u4640 070C                             u3841 07EB                             u4465 0A30  
                           u2881 0F44                             u3921 1745                             u4561 0E17  
                           u4641 070B                             u3850 07F3                             u4490 096B  
                           u2970 0FBD                             u3930 0976                             u4570 0E28  
                           u4650 07B3                             u3851 07F2                             u3915 087C  
                           u4491 096A                             u2971 0FBC                             u2875 0F3A  
                           u4395 0303                             u3931 0975                             u4571 0E27  
                           u4651 07B2                             u4707 06B2                             u3860 07FA  
                           u4580 17BC                             u2980 0FDA                             u4660 07BD  
                           u3861 07F9                             u4581 17BB                             u2981 0FD9  
                           u2965 0F9B                             u4717 0A91                             u4661 07BC  
                           u4590 17D6                             u2990 0FEF                             u3870 17E7  
                           u3950 0988                             u4670 07CB                             u4591 17D5  
                           u2991 0FEE                             u2975 0FB9                             u2895 0F48  
                           u3871 17E6                             u4727 0AF1                             u3951 0987  
                           u4671 07CA                             u2985 0FD6                             u4737 0B01  
                           u3945 097A                             u3890 17FB                             u3970 0999  
                           u3891 17FA                             u4747 0B0F                             u3971 0998  
                           u4757 17CC                             u3885 17EE                             u3965 0989  
                           u3990 09AD                             u4767 088E                             u3991 09AC  
                           u3975 0995                             u4687 0690                             u4777 08A1  
                           u3985 09A1                             u4697 069D                             i1l99 0ADE  
                           u4787 178C                             _POT1 0072                             _POT2 0071  
                           _TMR0 0001                ?_Lcd_Write_String 0025                             _main 0658  
                           map@x 00B6                             btemp 007E                             start 000C  
             ??_Lcd_Write_String 0027                  ___fldiv@new_exp 0040                       i1_spiWrite 1734  
                __end_of_Lcd_Cmd 1795                ___bmul@multiplier 0023                            ??_map 0070  
                          ??_isr 007A                    ___fltol@sign1 006E                  __end_of___fladd 0658  
                          ?_main 0076                  __end_of___fldiv 1000                  __end_of___flmul 036E  
                __end_of___fltol 0BD1                            _ANSEL 0188                  __end_of___lwdiv 09B2  
                          i1l108 0ADE                            i1l301 1761                            i1l218 1739  
                __end_of___lwmod 08E4                            _PORTA 0005                            _PORTB 0006  
                          _PORTD 0008                            _TRISA 0085                            _TRISB 0086  
                          _TRISC 0087                            _TRISD 0088                 adc_start@channel 0021  
             adc_init@vref_minus 0021                  __end_of_dpowers 081A                            map@x0 00B0  
                          map@x1 00B1                            map@y0 00B2                            map@y1 00B4  
                          _setup 083F                            pclath 000A                  __end_of_spiInit 17B3  
                __end_of_spiRead 1757                            status 0003                            wtemp0 007E  
                __end_of_sprintf 0E2D                 __end_of_Lcd_Init 0B43                 __end_of_Lcd_Port 07FE  
                __initialization 000F                     __end_of_main 07DE                           ??_main 00B7  
                         _ADRESH 001E                           ?_setup 0076                           _ANSELH 0189  
               __end_of_adc_init 0A95                 __end_of_adc_read 1762                           i1l2771 1757  
                         i1l2773 175A                           i1l2941 0A95                           i1l2951 0AAE  
                         i1l2943 0A9B                           i1l2961 0AC4                           i1l2953 0AB3  
                         i1l2945 0A9F                           i1l2939 1735                           i1l2963 0AC9  
                         i1l2955 0ABB                           i1l2947 0AA4                           i1l2965 0AD1  
                         i1l2957 0ABD                           i1l2949 0AAC                           i1l2967 0AD6  
                         i1l2959 0AC0                           u370_20 0A9B                           u370_21 0A9A  
                         u371_20 0A9F                           u371_21 0A9E                           u372_20 0AA4  
                         u372_21 0AA3                           u373_20 0AB3                           u373_21 0AB2  
                         u374_20 0AC4                           u374_21 0AC3                           u375_20 0AC9  
                         u375_21 0AC8                           u376_20 0AD6                           u376_21 0AD5  
                      ??_Lcd_Cmd 0021                           _TRISC3 043B                           _TRISC5 043D  
                         _SSPCON 0014                           _SSPBUF 0013                 __end_of___xxtofl 0C8B  
                  ?_init_osc_MHz 0076                      ?i1_spiWrite 0076                           ___bmul 1762  
                      ??___fladd 00A0                        ??___fldiv 0036                        ??___flmul 0050  
                      ??___fltol 00AC                        ??___lwdiv 0024                        ??___lwmod 002C  
               init_osc_MHz@freq 0022                           _setup2 08E4                           saved_w 007E  
               __end_of_spiWrite 1740                        ??_spiInit 0023                        ??_spiRead 0020  
                      ??_sprintf 0037                  Lcd_Set_Cursor@a 0026                  Lcd_Set_Cursor@b 0024  
                Lcd_Set_Cursor@y 0028                  Lcd_Set_Cursor@z 0027                     ___xxtofl@arg 002A  
                   ___xxtofl@exp 0029                     ___xxtofl@val 0020          __end_of__initialization 0025  
                 ??_init_osc_MHz 0020                       ___fltol@f1 00A8              ___bmul@multiplicand 0020  
                 __pcstackCOMMON 0076                    __end_of_setup 086F                   _Lcd_Set_Cursor 09FD  
                 _OPTION_REGbits 0081                        ?_Lcd_Init 0076                   adc_init@adc_cs 0024  
                      ?_Lcd_Port 0076                          ??_setup 0026                       __pbssBANK1 00BF  
              __end_of__Umul8_16 1800                       __pmaintext 0658                          ?___bmul 0020  
                     __pintentry 0004           __end_of_Lcd_Set_Cursor 0A49                          ?_setup2 0076  
                      ?_adc_init 0020                        ?_adc_read 0076                __end_of_adc_start 17D7  
                      ?___xxtofl 0020                       ??_Lcd_Init 0024                       ??_Lcd_Port 0020  
                        _SSPSTAT 0094                       __stringtab 0800                   _Lcd_Write_Char 086F  
                        _Lcd_Cmd 1779                       _init_POT_1 00C6                       _init_POT_2 00C4  
                      ?_spiWrite 0076                          ___fladd 036E                          ___fldiv 0E2D  
                        ___flmul 0029                          ___fltol 0B43                          ___lwdiv 096C  
                        ___lwmod 08A8                          _bandera 0074                  ?_Lcd_Set_Cursor 0024  
                     ??_adc_init 0022                       ??_adc_read 0078                          __ptext1 0D51  
                        __ptext2 08A8                          __ptext3 096C                          __ptext4 173A  
                        __ptext5 1747                          __ptext6 174E                          __ptext7 1740  
                        __ptext8 08E4                          __ptext9 0A49             __end_of_init_osc_MHz 09FD  
                        _dpowers 0810                       ??___xxtofl 0024                          _spiInit 1795  
                        _spiRead 174E                          _sprintf 0D51           __end_of_Lcd_Write_Char 08A8  
           end_of_initialization 0025          _spiReceiveWait@SPI$F467 1740                     ??i1_spiWrite 0076  
                     ??_spiWrite 0020                        Lcd_Port@a 0020                        _PORTCbits 0007  
                      _PORTDbits 0008                      ___fladd@grs 006D                        _VOLTAJE_1 00C1  
                      _VOLTAJE_2 00BF                    ___xxtofl@sign 0028                      ___fldiv@grs 0042  
                    ___fldiv@rem 003B               __end_ofi1_spiWrite 173A                      spiWrite@dat 0020  
                ?_Lcd_Write_Char 0076                Lcd_Write_String@a 0025                Lcd_Write_String@i 002A  
                    ___flmul@grs 0057                   _spiReceiveWait 1747                   __end_of___bmul 1779  
               _Lcd_Write_String 0926                adc_init@vref_plus 0020                   __end_of_setup2 0926  
            start_initialization 000F                      __end_of_map 0D51                      __end_of_isr 0AE5  
      ??_spiReceiveWait@SPI$F467 0020           __end_of_spiReceiveWait 174E                         ??___bmul 0021  
                      __Umul8_16 17D7                  Lcd_Write_Char@a 0024                  Lcd_Write_Char@y 0023  
                       ??_setup2 0025                        ___fladd@a 0066                        ___fladd@b 0062  
                      ___fldiv@a 002E                        ___fldiv@b 0032                        ___flmul@a 004C  
                      ___flmul@b 0048                      __pbssCOMMON 0070                        ___latbits 0002  
                  __pcstackBANK0 0020                    __pcstackBANK1 00A0                   _valor_recibido 0075  
                      _dec_POT_1 00C5                        _dec_POT_2 00C3                        _adc_start 17B3  
                      _canal_ADC 0073                         ?_Lcd_Cmd 0076                      sprintf@flag 003B  
                    sprintf@prec 003C                     _init_osc_MHz 09B2                 ___lwdiv@dividend 0022  
                ?_spiReceiveWait 0076                 ??_Lcd_Set_Cursor 0025                         ?___fladd 0062  
                       ?___fldiv 002E                         ?___flmul 0048                         ?___fltol 00A8  
                     ?__Umul8_16 0020                         ?___lwdiv 0020  __end_of_spiReceiveWait@SPI$F467 1747  
                       ?___lwmod 0028                        __pstrings 0800                         ?_spiInit 0020  
                       ?_spiRead 0076                 ___lwdiv@quotient 0026                         ?_sprintf 002E  
                     ?_adc_start 0076             spiInit@sTransmitEdge 0022                interrupt_function 0004  
                       _PIE1bits 008C               spiInit@sDataSample 0020                         Lcd_Cmd@a 0023  
                       _PIR1bits 000C                       _ADCON0bits 001F                      __stringbase 080F  
                     _ADCON1bits 009F                      _cont_master 00CA                 ??_Lcd_Write_Char 0021  
                       _Lcd_Init 0AE5                         _Lcd_Port 07DE         __end_of_Lcd_Write_String 096C  
                    ??__Umul8_16 0022               __end_of__stringtab 0810                         _adc_init 0A49  
                       _adc_read 1757                       sprintf@val 003D                         ___xxtofl 0BD1  
                ___lwdiv@divisor 0020                  ___lwdiv@counter 0025                         __ptext10 083F  
                       __ptext11 1795                         __ptext20 036E                         __ptext12 09B2  
                       __ptext21 17B3                         __ptext13 0AE5                         __ptext30 1757  
                       __ptext22 1762                         __ptext14 0C8B                         __ptext23 0926  
                       __ptext15 0BD1                         __ptext24 086F                         __ptext16 0B43  
                       __ptext25 09FD                         __ptext17 0029                         __ptext26 1779  
                       __ptext18 17D7                         __ptext27 07DE                         __ptext19 0E2D  
                       __ptext28 0A95                         __ptext29 1734                      ??_adc_start 0020  
                       _contador 00CB                     _val_temporal 00C9                         _variable 0070  
                       _spiWrite 173A                     spiInit@sType 0023                spiInit@sClockIdle 0021  
                     _INTCONbits 000B               Lcd_Write_Char@temp 0022                         intlevel1 0000  
                      sprintf@ap 003A                        sprintf@sp 003F                 ___lwmod@dividend 002A  
               ??_spiReceiveWait 0020                        stringcode 080A                       _OSCCONbits 008F  
                     _POT1_ENVIO 00C8                       _POT2_ENVIO 00C7               Lcd_Set_Cursor@temp 0029  
         __Umul8_16@multiplicand 0020                         sprintf@c 0040                         sprintf@f 002E  
                ___lwmod@divisor 0028                  ___lwmod@counter 002D                         stringdir 080A  
                       stringtab 0800         ?_spiReceiveWait@SPI$F467 0076                    ___fladd@signs 006A  
                   ___fladd@aexp 006B                     ___fladd@bexp 006C             __Umul8_16@multiplier 0028  
              __Umul8_16@product 0024  
